ARM GAS  /tmp/cc70W8W1.s 			page 1


   1              		.syntax unified
   2              		.cpu cortex-m4
   3              		.eabi_attribute 27, 1
   4              		.fpu fpv4-sp-d16
   5              		.eabi_attribute 20, 1
   6              		.eabi_attribute 21, 1
   7              		.eabi_attribute 23, 3
   8              		.eabi_attribute 24, 1
   9              		.eabi_attribute 25, 1
  10              		.eabi_attribute 26, 1
  11              		.eabi_attribute 30, 6
  12              		.eabi_attribute 34, 1
  13              		.eabi_attribute 18, 4
  14              		.thumb
  15              		.file	"stm32f4xx_hal_wwdg.c"
  16              		.text
  17              	.Ltext0:
  18              		.cfi_sections	.debug_frame
  19              		.section	.text.HAL_WWDG_Init,"ax",%progbits
  20              		.align	2
  21              		.global	HAL_WWDG_Init
  22              		.thumb
  23              		.thumb_func
  25              	HAL_WWDG_Init:
  26              	.LFB125:
  27              		.file 1 "/home/vadimstupakov/Data/STM32/STM32Cube/Repository/STM32Cube_FW_F4_V1.10.0/Drivers/STM32
   1:/home/vadimstupakov/Data/STM32/STM32Cube/Repository/STM32Cube_FW_F4_V1.10.0/Drivers/STM32F4xx_HAL_Driver/Src/stm32f4xx_hal_wwdg.c **** /**
   2:/home/vadimstupakov/Data/STM32/STM32Cube/Repository/STM32Cube_FW_F4_V1.10.0/Drivers/STM32F4xx_HAL_Driver/Src/stm32f4xx_hal_wwdg.c ****   ******************************************************************************
   3:/home/vadimstupakov/Data/STM32/STM32Cube/Repository/STM32Cube_FW_F4_V1.10.0/Drivers/STM32F4xx_HAL_Driver/Src/stm32f4xx_hal_wwdg.c ****   * @file    stm32f4xx_hal_wwdg.c
   4:/home/vadimstupakov/Data/STM32/STM32Cube/Repository/STM32Cube_FW_F4_V1.10.0/Drivers/STM32F4xx_HAL_Driver/Src/stm32f4xx_hal_wwdg.c ****   * @author  MCD Application Team
   5:/home/vadimstupakov/Data/STM32/STM32Cube/Repository/STM32Cube_FW_F4_V1.10.0/Drivers/STM32F4xx_HAL_Driver/Src/stm32f4xx_hal_wwdg.c ****   * @version V1.4.2
   6:/home/vadimstupakov/Data/STM32/STM32Cube/Repository/STM32Cube_FW_F4_V1.10.0/Drivers/STM32F4xx_HAL_Driver/Src/stm32f4xx_hal_wwdg.c ****   * @date    10-November-2015
   7:/home/vadimstupakov/Data/STM32/STM32Cube/Repository/STM32Cube_FW_F4_V1.10.0/Drivers/STM32F4xx_HAL_Driver/Src/stm32f4xx_hal_wwdg.c ****   * @brief   WWDG HAL module driver.
   8:/home/vadimstupakov/Data/STM32/STM32Cube/Repository/STM32Cube_FW_F4_V1.10.0/Drivers/STM32F4xx_HAL_Driver/Src/stm32f4xx_hal_wwdg.c ****   *          This file provides firmware functions to manage the following 
   9:/home/vadimstupakov/Data/STM32/STM32Cube/Repository/STM32Cube_FW_F4_V1.10.0/Drivers/STM32F4xx_HAL_Driver/Src/stm32f4xx_hal_wwdg.c ****   *          functionalities of the Window Watchdog (WWDG) peripheral:
  10:/home/vadimstupakov/Data/STM32/STM32Cube/Repository/STM32Cube_FW_F4_V1.10.0/Drivers/STM32F4xx_HAL_Driver/Src/stm32f4xx_hal_wwdg.c ****   *           + Initialization and de-initialization functions
  11:/home/vadimstupakov/Data/STM32/STM32Cube/Repository/STM32Cube_FW_F4_V1.10.0/Drivers/STM32F4xx_HAL_Driver/Src/stm32f4xx_hal_wwdg.c ****   *           + IO operation functions
  12:/home/vadimstupakov/Data/STM32/STM32Cube/Repository/STM32Cube_FW_F4_V1.10.0/Drivers/STM32F4xx_HAL_Driver/Src/stm32f4xx_hal_wwdg.c ****   *           + Peripheral State functions       
  13:/home/vadimstupakov/Data/STM32/STM32Cube/Repository/STM32Cube_FW_F4_V1.10.0/Drivers/STM32F4xx_HAL_Driver/Src/stm32f4xx_hal_wwdg.c ****   @verbatim
  14:/home/vadimstupakov/Data/STM32/STM32Cube/Repository/STM32Cube_FW_F4_V1.10.0/Drivers/STM32F4xx_HAL_Driver/Src/stm32f4xx_hal_wwdg.c ****   ==============================================================================
  15:/home/vadimstupakov/Data/STM32/STM32Cube/Repository/STM32Cube_FW_F4_V1.10.0/Drivers/STM32F4xx_HAL_Driver/Src/stm32f4xx_hal_wwdg.c ****                       ##### WWDG specific features #####
  16:/home/vadimstupakov/Data/STM32/STM32Cube/Repository/STM32Cube_FW_F4_V1.10.0/Drivers/STM32F4xx_HAL_Driver/Src/stm32f4xx_hal_wwdg.c ****   ==============================================================================
  17:/home/vadimstupakov/Data/STM32/STM32Cube/Repository/STM32Cube_FW_F4_V1.10.0/Drivers/STM32F4xx_HAL_Driver/Src/stm32f4xx_hal_wwdg.c ****   [..] 
  18:/home/vadimstupakov/Data/STM32/STM32Cube/Repository/STM32Cube_FW_F4_V1.10.0/Drivers/STM32F4xx_HAL_Driver/Src/stm32f4xx_hal_wwdg.c ****     Once enabled the WWDG generates a system reset on expiry of a programmed
  19:/home/vadimstupakov/Data/STM32/STM32Cube/Repository/STM32Cube_FW_F4_V1.10.0/Drivers/STM32F4xx_HAL_Driver/Src/stm32f4xx_hal_wwdg.c ****     time period, unless the program refreshes the counter (downcounter) 
  20:/home/vadimstupakov/Data/STM32/STM32Cube/Repository/STM32Cube_FW_F4_V1.10.0/Drivers/STM32F4xx_HAL_Driver/Src/stm32f4xx_hal_wwdg.c ****     before reaching 0x3F value (i.e. a reset is generated when the counter
  21:/home/vadimstupakov/Data/STM32/STM32Cube/Repository/STM32Cube_FW_F4_V1.10.0/Drivers/STM32F4xx_HAL_Driver/Src/stm32f4xx_hal_wwdg.c ****     value rolls over from 0x40 to 0x3F). 
  22:/home/vadimstupakov/Data/STM32/STM32Cube/Repository/STM32Cube_FW_F4_V1.10.0/Drivers/STM32F4xx_HAL_Driver/Src/stm32f4xx_hal_wwdg.c ****        
  23:/home/vadimstupakov/Data/STM32/STM32Cube/Repository/STM32Cube_FW_F4_V1.10.0/Drivers/STM32F4xx_HAL_Driver/Src/stm32f4xx_hal_wwdg.c ****     (+) An MCU reset is also generated if the counter value is refreshed
  24:/home/vadimstupakov/Data/STM32/STM32Cube/Repository/STM32Cube_FW_F4_V1.10.0/Drivers/STM32F4xx_HAL_Driver/Src/stm32f4xx_hal_wwdg.c ****         before the counter has reached the refresh window value. This 
  25:/home/vadimstupakov/Data/STM32/STM32Cube/Repository/STM32Cube_FW_F4_V1.10.0/Drivers/STM32F4xx_HAL_Driver/Src/stm32f4xx_hal_wwdg.c ****         implies that the counter must be refreshed in a limited window.
  26:/home/vadimstupakov/Data/STM32/STM32Cube/Repository/STM32Cube_FW_F4_V1.10.0/Drivers/STM32F4xx_HAL_Driver/Src/stm32f4xx_hal_wwdg.c ****     (+) Once enabled the WWDG cannot be disabled except by a system reset.
  27:/home/vadimstupakov/Data/STM32/STM32Cube/Repository/STM32Cube_FW_F4_V1.10.0/Drivers/STM32F4xx_HAL_Driver/Src/stm32f4xx_hal_wwdg.c ****     (+) WWDGRST flag in RCC_CSR register can be used to inform when a WWDG
  28:/home/vadimstupakov/Data/STM32/STM32Cube/Repository/STM32Cube_FW_F4_V1.10.0/Drivers/STM32F4xx_HAL_Driver/Src/stm32f4xx_hal_wwdg.c ****         reset occurs.               
  29:/home/vadimstupakov/Data/STM32/STM32Cube/Repository/STM32Cube_FW_F4_V1.10.0/Drivers/STM32F4xx_HAL_Driver/Src/stm32f4xx_hal_wwdg.c ****     (+) The WWDG counter input clock is derived from the APB clock divided 
  30:/home/vadimstupakov/Data/STM32/STM32Cube/Repository/STM32Cube_FW_F4_V1.10.0/Drivers/STM32F4xx_HAL_Driver/Src/stm32f4xx_hal_wwdg.c ****         by a programmable prescaler.
  31:/home/vadimstupakov/Data/STM32/STM32Cube/Repository/STM32Cube_FW_F4_V1.10.0/Drivers/STM32F4xx_HAL_Driver/Src/stm32f4xx_hal_wwdg.c ****     (+) WWDG clock (Hz) = PCLK1 / (4096 * Prescaler)
ARM GAS  /tmp/cc70W8W1.s 			page 2


  32:/home/vadimstupakov/Data/STM32/STM32Cube/Repository/STM32Cube_FW_F4_V1.10.0/Drivers/STM32F4xx_HAL_Driver/Src/stm32f4xx_hal_wwdg.c ****     (+) WWDG timeout (mS) = 1000 * Counter / WWDG clock
  33:/home/vadimstupakov/Data/STM32/STM32Cube/Repository/STM32Cube_FW_F4_V1.10.0/Drivers/STM32F4xx_HAL_Driver/Src/stm32f4xx_hal_wwdg.c ****     (+) WWDG Counter refresh is allowed between the following limits :
  34:/home/vadimstupakov/Data/STM32/STM32Cube/Repository/STM32Cube_FW_F4_V1.10.0/Drivers/STM32F4xx_HAL_Driver/Src/stm32f4xx_hal_wwdg.c ****         (++) min time (mS) = 1000 * (Counter _ Window) / WWDG clock
  35:/home/vadimstupakov/Data/STM32/STM32Cube/Repository/STM32Cube_FW_F4_V1.10.0/Drivers/STM32F4xx_HAL_Driver/Src/stm32f4xx_hal_wwdg.c ****         (++) max time (mS) = 1000 * (Counter _ 0x40) / WWDG clock
  36:/home/vadimstupakov/Data/STM32/STM32Cube/Repository/STM32Cube_FW_F4_V1.10.0/Drivers/STM32F4xx_HAL_Driver/Src/stm32f4xx_hal_wwdg.c ****     
  37:/home/vadimstupakov/Data/STM32/STM32Cube/Repository/STM32Cube_FW_F4_V1.10.0/Drivers/STM32F4xx_HAL_Driver/Src/stm32f4xx_hal_wwdg.c ****     (+) Min-max timeout value at 50 MHz(PCLK1): 81.9 us / 41.9 ms 
  38:/home/vadimstupakov/Data/STM32/STM32Cube/Repository/STM32Cube_FW_F4_V1.10.0/Drivers/STM32F4xx_HAL_Driver/Src/stm32f4xx_hal_wwdg.c **** 
  39:/home/vadimstupakov/Data/STM32/STM32Cube/Repository/STM32Cube_FW_F4_V1.10.0/Drivers/STM32F4xx_HAL_Driver/Src/stm32f4xx_hal_wwdg.c **** 
  40:/home/vadimstupakov/Data/STM32/STM32Cube/Repository/STM32Cube_FW_F4_V1.10.0/Drivers/STM32F4xx_HAL_Driver/Src/stm32f4xx_hal_wwdg.c ****                      ##### How to use this driver #####
  41:/home/vadimstupakov/Data/STM32/STM32Cube/Repository/STM32Cube_FW_F4_V1.10.0/Drivers/STM32F4xx_HAL_Driver/Src/stm32f4xx_hal_wwdg.c ****   ==============================================================================
  42:/home/vadimstupakov/Data/STM32/STM32Cube/Repository/STM32Cube_FW_F4_V1.10.0/Drivers/STM32F4xx_HAL_Driver/Src/stm32f4xx_hal_wwdg.c ****   [..]
  43:/home/vadimstupakov/Data/STM32/STM32Cube/Repository/STM32Cube_FW_F4_V1.10.0/Drivers/STM32F4xx_HAL_Driver/Src/stm32f4xx_hal_wwdg.c ****     (+) Enable WWDG APB1 clock using __HAL_RCC_WWDG_CLK_ENABLE().
  44:/home/vadimstupakov/Data/STM32/STM32Cube/Repository/STM32Cube_FW_F4_V1.10.0/Drivers/STM32F4xx_HAL_Driver/Src/stm32f4xx_hal_wwdg.c ****     (+) Set the WWDG prescaler, refresh window and counter value 
  45:/home/vadimstupakov/Data/STM32/STM32Cube/Repository/STM32Cube_FW_F4_V1.10.0/Drivers/STM32F4xx_HAL_Driver/Src/stm32f4xx_hal_wwdg.c ****         using HAL_WWDG_Init() function.
  46:/home/vadimstupakov/Data/STM32/STM32Cube/Repository/STM32Cube_FW_F4_V1.10.0/Drivers/STM32F4xx_HAL_Driver/Src/stm32f4xx_hal_wwdg.c ****     (+) Start the WWDG using HAL_WWDG_Start() function.
  47:/home/vadimstupakov/Data/STM32/STM32Cube/Repository/STM32Cube_FW_F4_V1.10.0/Drivers/STM32F4xx_HAL_Driver/Src/stm32f4xx_hal_wwdg.c ****         When the WWDG is enabled the counter value should be configured to 
  48:/home/vadimstupakov/Data/STM32/STM32Cube/Repository/STM32Cube_FW_F4_V1.10.0/Drivers/STM32F4xx_HAL_Driver/Src/stm32f4xx_hal_wwdg.c ****         a value greater than 0x40 to prevent generating an immediate reset.
  49:/home/vadimstupakov/Data/STM32/STM32Cube/Repository/STM32Cube_FW_F4_V1.10.0/Drivers/STM32F4xx_HAL_Driver/Src/stm32f4xx_hal_wwdg.c ****     (+) Optionally you can enable the Early Wakeup Interrupt (EWI) which is 
  50:/home/vadimstupakov/Data/STM32/STM32Cube/Repository/STM32Cube_FW_F4_V1.10.0/Drivers/STM32F4xx_HAL_Driver/Src/stm32f4xx_hal_wwdg.c ****         generated when the counter reaches 0x40, and then start the WWDG using
  51:/home/vadimstupakov/Data/STM32/STM32Cube/Repository/STM32Cube_FW_F4_V1.10.0/Drivers/STM32F4xx_HAL_Driver/Src/stm32f4xx_hal_wwdg.c ****         HAL_WWDG_Start_IT(). At EWI HAL_WWDG_WakeupCallback is executed and user can 
  52:/home/vadimstupakov/Data/STM32/STM32Cube/Repository/STM32Cube_FW_F4_V1.10.0/Drivers/STM32F4xx_HAL_Driver/Src/stm32f4xx_hal_wwdg.c ****         add his own code by customization of function pointer HAL_WWDG_WakeupCallback
  53:/home/vadimstupakov/Data/STM32/STM32Cube/Repository/STM32Cube_FW_F4_V1.10.0/Drivers/STM32F4xx_HAL_Driver/Src/stm32f4xx_hal_wwdg.c ****         Once enabled, EWI interrupt cannot be disabled except by a system reset.          
  54:/home/vadimstupakov/Data/STM32/STM32Cube/Repository/STM32Cube_FW_F4_V1.10.0/Drivers/STM32F4xx_HAL_Driver/Src/stm32f4xx_hal_wwdg.c ****     (+) Then the application program must refresh the WWDG counter at regular
  55:/home/vadimstupakov/Data/STM32/STM32Cube/Repository/STM32Cube_FW_F4_V1.10.0/Drivers/STM32F4xx_HAL_Driver/Src/stm32f4xx_hal_wwdg.c ****         intervals during normal operation to prevent an MCU reset, using
  56:/home/vadimstupakov/Data/STM32/STM32Cube/Repository/STM32Cube_FW_F4_V1.10.0/Drivers/STM32F4xx_HAL_Driver/Src/stm32f4xx_hal_wwdg.c ****         HAL_WWDG_Refresh() function. This operation must occur only when
  57:/home/vadimstupakov/Data/STM32/STM32Cube/Repository/STM32Cube_FW_F4_V1.10.0/Drivers/STM32F4xx_HAL_Driver/Src/stm32f4xx_hal_wwdg.c ****         the counter is lower than the refresh window value already programmed.
  58:/home/vadimstupakov/Data/STM32/STM32Cube/Repository/STM32Cube_FW_F4_V1.10.0/Drivers/STM32F4xx_HAL_Driver/Src/stm32f4xx_hal_wwdg.c ****         
  59:/home/vadimstupakov/Data/STM32/STM32Cube/Repository/STM32Cube_FW_F4_V1.10.0/Drivers/STM32F4xx_HAL_Driver/Src/stm32f4xx_hal_wwdg.c ****      *** WWDG HAL driver macros list ***
  60:/home/vadimstupakov/Data/STM32/STM32Cube/Repository/STM32Cube_FW_F4_V1.10.0/Drivers/STM32F4xx_HAL_Driver/Src/stm32f4xx_hal_wwdg.c ****      ==================================
  61:/home/vadimstupakov/Data/STM32/STM32Cube/Repository/STM32Cube_FW_F4_V1.10.0/Drivers/STM32F4xx_HAL_Driver/Src/stm32f4xx_hal_wwdg.c ****      [..]
  62:/home/vadimstupakov/Data/STM32/STM32Cube/Repository/STM32Cube_FW_F4_V1.10.0/Drivers/STM32F4xx_HAL_Driver/Src/stm32f4xx_hal_wwdg.c ****        Below the list of most used macros in WWDG HAL driver.
  63:/home/vadimstupakov/Data/STM32/STM32Cube/Repository/STM32Cube_FW_F4_V1.10.0/Drivers/STM32F4xx_HAL_Driver/Src/stm32f4xx_hal_wwdg.c ****        
  64:/home/vadimstupakov/Data/STM32/STM32Cube/Repository/STM32Cube_FW_F4_V1.10.0/Drivers/STM32F4xx_HAL_Driver/Src/stm32f4xx_hal_wwdg.c ****       (+) __HAL_WWDG_ENABLE: Enable the WWDG peripheral 
  65:/home/vadimstupakov/Data/STM32/STM32Cube/Repository/STM32Cube_FW_F4_V1.10.0/Drivers/STM32F4xx_HAL_Driver/Src/stm32f4xx_hal_wwdg.c ****       (+) __HAL_WWDG_GET_FLAG: Get the selected WWDG's flag status
  66:/home/vadimstupakov/Data/STM32/STM32Cube/Repository/STM32Cube_FW_F4_V1.10.0/Drivers/STM32F4xx_HAL_Driver/Src/stm32f4xx_hal_wwdg.c ****       (+) __HAL_WWDG_CLEAR_FLAG: Clear the WWDG's pending flags 
  67:/home/vadimstupakov/Data/STM32/STM32Cube/Repository/STM32Cube_FW_F4_V1.10.0/Drivers/STM32F4xx_HAL_Driver/Src/stm32f4xx_hal_wwdg.c ****       (+) __HAL_WWDG_ENABLE_IT:  Enables the WWDG early wake-up interrupt 
  68:/home/vadimstupakov/Data/STM32/STM32Cube/Repository/STM32Cube_FW_F4_V1.10.0/Drivers/STM32F4xx_HAL_Driver/Src/stm32f4xx_hal_wwdg.c **** 
  69:/home/vadimstupakov/Data/STM32/STM32Cube/Repository/STM32Cube_FW_F4_V1.10.0/Drivers/STM32F4xx_HAL_Driver/Src/stm32f4xx_hal_wwdg.c ****   @endverbatim
  70:/home/vadimstupakov/Data/STM32/STM32Cube/Repository/STM32Cube_FW_F4_V1.10.0/Drivers/STM32F4xx_HAL_Driver/Src/stm32f4xx_hal_wwdg.c ****   ******************************************************************************
  71:/home/vadimstupakov/Data/STM32/STM32Cube/Repository/STM32Cube_FW_F4_V1.10.0/Drivers/STM32F4xx_HAL_Driver/Src/stm32f4xx_hal_wwdg.c ****   * @attention
  72:/home/vadimstupakov/Data/STM32/STM32Cube/Repository/STM32Cube_FW_F4_V1.10.0/Drivers/STM32F4xx_HAL_Driver/Src/stm32f4xx_hal_wwdg.c ****   *
  73:/home/vadimstupakov/Data/STM32/STM32Cube/Repository/STM32Cube_FW_F4_V1.10.0/Drivers/STM32F4xx_HAL_Driver/Src/stm32f4xx_hal_wwdg.c ****   * <h2><center>&copy; COPYRIGHT(c) 2015 STMicroelectronics</center></h2>
  74:/home/vadimstupakov/Data/STM32/STM32Cube/Repository/STM32Cube_FW_F4_V1.10.0/Drivers/STM32F4xx_HAL_Driver/Src/stm32f4xx_hal_wwdg.c ****   *
  75:/home/vadimstupakov/Data/STM32/STM32Cube/Repository/STM32Cube_FW_F4_V1.10.0/Drivers/STM32F4xx_HAL_Driver/Src/stm32f4xx_hal_wwdg.c ****   * Redistribution and use in source and binary forms, with or without modification,
  76:/home/vadimstupakov/Data/STM32/STM32Cube/Repository/STM32Cube_FW_F4_V1.10.0/Drivers/STM32F4xx_HAL_Driver/Src/stm32f4xx_hal_wwdg.c ****   * are permitted provided that the following conditions are met:
  77:/home/vadimstupakov/Data/STM32/STM32Cube/Repository/STM32Cube_FW_F4_V1.10.0/Drivers/STM32F4xx_HAL_Driver/Src/stm32f4xx_hal_wwdg.c ****   *   1. Redistributions of source code must retain the above copyright notice,
  78:/home/vadimstupakov/Data/STM32/STM32Cube/Repository/STM32Cube_FW_F4_V1.10.0/Drivers/STM32F4xx_HAL_Driver/Src/stm32f4xx_hal_wwdg.c ****   *      this list of conditions and the following disclaimer.
  79:/home/vadimstupakov/Data/STM32/STM32Cube/Repository/STM32Cube_FW_F4_V1.10.0/Drivers/STM32F4xx_HAL_Driver/Src/stm32f4xx_hal_wwdg.c ****   *   2. Redistributions in binary form must reproduce the above copyright notice,
  80:/home/vadimstupakov/Data/STM32/STM32Cube/Repository/STM32Cube_FW_F4_V1.10.0/Drivers/STM32F4xx_HAL_Driver/Src/stm32f4xx_hal_wwdg.c ****   *      this list of conditions and the following disclaimer in the documentation
  81:/home/vadimstupakov/Data/STM32/STM32Cube/Repository/STM32Cube_FW_F4_V1.10.0/Drivers/STM32F4xx_HAL_Driver/Src/stm32f4xx_hal_wwdg.c ****   *      and/or other materials provided with the distribution.
  82:/home/vadimstupakov/Data/STM32/STM32Cube/Repository/STM32Cube_FW_F4_V1.10.0/Drivers/STM32F4xx_HAL_Driver/Src/stm32f4xx_hal_wwdg.c ****   *   3. Neither the name of STMicroelectronics nor the names of its contributors
  83:/home/vadimstupakov/Data/STM32/STM32Cube/Repository/STM32Cube_FW_F4_V1.10.0/Drivers/STM32F4xx_HAL_Driver/Src/stm32f4xx_hal_wwdg.c ****   *      may be used to endorse or promote products derived from this software
  84:/home/vadimstupakov/Data/STM32/STM32Cube/Repository/STM32Cube_FW_F4_V1.10.0/Drivers/STM32F4xx_HAL_Driver/Src/stm32f4xx_hal_wwdg.c ****   *      without specific prior written permission.
  85:/home/vadimstupakov/Data/STM32/STM32Cube/Repository/STM32Cube_FW_F4_V1.10.0/Drivers/STM32F4xx_HAL_Driver/Src/stm32f4xx_hal_wwdg.c ****   *
  86:/home/vadimstupakov/Data/STM32/STM32Cube/Repository/STM32Cube_FW_F4_V1.10.0/Drivers/STM32F4xx_HAL_Driver/Src/stm32f4xx_hal_wwdg.c ****   * THIS SOFTWARE IS PROVIDED BY THE COPYRIGHT HOLDERS AND CONTRIBUTORS "AS IS"
  87:/home/vadimstupakov/Data/STM32/STM32Cube/Repository/STM32Cube_FW_F4_V1.10.0/Drivers/STM32F4xx_HAL_Driver/Src/stm32f4xx_hal_wwdg.c ****   * AND ANY EXPRESS OR IMPLIED WARRANTIES, INCLUDING, BUT NOT LIMITED TO, THE
  88:/home/vadimstupakov/Data/STM32/STM32Cube/Repository/STM32Cube_FW_F4_V1.10.0/Drivers/STM32F4xx_HAL_Driver/Src/stm32f4xx_hal_wwdg.c ****   * IMPLIED WARRANTIES OF MERCHANTABILITY AND FITNESS FOR A PARTICULAR PURPOSE ARE
ARM GAS  /tmp/cc70W8W1.s 			page 3


  89:/home/vadimstupakov/Data/STM32/STM32Cube/Repository/STM32Cube_FW_F4_V1.10.0/Drivers/STM32F4xx_HAL_Driver/Src/stm32f4xx_hal_wwdg.c ****   * DISCLAIMED. IN NO EVENT SHALL THE COPYRIGHT HOLDER OR CONTRIBUTORS BE LIABLE
  90:/home/vadimstupakov/Data/STM32/STM32Cube/Repository/STM32Cube_FW_F4_V1.10.0/Drivers/STM32F4xx_HAL_Driver/Src/stm32f4xx_hal_wwdg.c ****   * FOR ANY DIRECT, INDIRECT, INCIDENTAL, SPECIAL, EXEMPLARY, OR CONSEQUENTIAL
  91:/home/vadimstupakov/Data/STM32/STM32Cube/Repository/STM32Cube_FW_F4_V1.10.0/Drivers/STM32F4xx_HAL_Driver/Src/stm32f4xx_hal_wwdg.c ****   * DAMAGES (INCLUDING, BUT NOT LIMITED TO, PROCUREMENT OF SUBSTITUTE GOODS OR
  92:/home/vadimstupakov/Data/STM32/STM32Cube/Repository/STM32Cube_FW_F4_V1.10.0/Drivers/STM32F4xx_HAL_Driver/Src/stm32f4xx_hal_wwdg.c ****   * SERVICES; LOSS OF USE, DATA, OR PROFITS; OR BUSINESS INTERRUPTION) HOWEVER
  93:/home/vadimstupakov/Data/STM32/STM32Cube/Repository/STM32Cube_FW_F4_V1.10.0/Drivers/STM32F4xx_HAL_Driver/Src/stm32f4xx_hal_wwdg.c ****   * CAUSED AND ON ANY THEORY OF LIABILITY, WHETHER IN CONTRACT, STRICT LIABILITY,
  94:/home/vadimstupakov/Data/STM32/STM32Cube/Repository/STM32Cube_FW_F4_V1.10.0/Drivers/STM32F4xx_HAL_Driver/Src/stm32f4xx_hal_wwdg.c ****   * OR TORT (INCLUDING NEGLIGENCE OR OTHERWISE) ARISING IN ANY WAY OUT OF THE USE
  95:/home/vadimstupakov/Data/STM32/STM32Cube/Repository/STM32Cube_FW_F4_V1.10.0/Drivers/STM32F4xx_HAL_Driver/Src/stm32f4xx_hal_wwdg.c ****   * OF THIS SOFTWARE, EVEN IF ADVISED OF THE POSSIBILITY OF SUCH DAMAGE.
  96:/home/vadimstupakov/Data/STM32/STM32Cube/Repository/STM32Cube_FW_F4_V1.10.0/Drivers/STM32F4xx_HAL_Driver/Src/stm32f4xx_hal_wwdg.c ****   *
  97:/home/vadimstupakov/Data/STM32/STM32Cube/Repository/STM32Cube_FW_F4_V1.10.0/Drivers/STM32F4xx_HAL_Driver/Src/stm32f4xx_hal_wwdg.c ****   ******************************************************************************
  98:/home/vadimstupakov/Data/STM32/STM32Cube/Repository/STM32Cube_FW_F4_V1.10.0/Drivers/STM32F4xx_HAL_Driver/Src/stm32f4xx_hal_wwdg.c ****   */ 
  99:/home/vadimstupakov/Data/STM32/STM32Cube/Repository/STM32Cube_FW_F4_V1.10.0/Drivers/STM32F4xx_HAL_Driver/Src/stm32f4xx_hal_wwdg.c **** 
 100:/home/vadimstupakov/Data/STM32/STM32Cube/Repository/STM32Cube_FW_F4_V1.10.0/Drivers/STM32F4xx_HAL_Driver/Src/stm32f4xx_hal_wwdg.c **** /* Includes ------------------------------------------------------------------*/
 101:/home/vadimstupakov/Data/STM32/STM32Cube/Repository/STM32Cube_FW_F4_V1.10.0/Drivers/STM32F4xx_HAL_Driver/Src/stm32f4xx_hal_wwdg.c **** #include "stm32f4xx_hal.h"
 102:/home/vadimstupakov/Data/STM32/STM32Cube/Repository/STM32Cube_FW_F4_V1.10.0/Drivers/STM32F4xx_HAL_Driver/Src/stm32f4xx_hal_wwdg.c **** 
 103:/home/vadimstupakov/Data/STM32/STM32Cube/Repository/STM32Cube_FW_F4_V1.10.0/Drivers/STM32F4xx_HAL_Driver/Src/stm32f4xx_hal_wwdg.c **** /** @addtogroup STM32F4xx_HAL_Driver
 104:/home/vadimstupakov/Data/STM32/STM32Cube/Repository/STM32Cube_FW_F4_V1.10.0/Drivers/STM32F4xx_HAL_Driver/Src/stm32f4xx_hal_wwdg.c ****   * @{
 105:/home/vadimstupakov/Data/STM32/STM32Cube/Repository/STM32Cube_FW_F4_V1.10.0/Drivers/STM32F4xx_HAL_Driver/Src/stm32f4xx_hal_wwdg.c ****   */
 106:/home/vadimstupakov/Data/STM32/STM32Cube/Repository/STM32Cube_FW_F4_V1.10.0/Drivers/STM32F4xx_HAL_Driver/Src/stm32f4xx_hal_wwdg.c **** 
 107:/home/vadimstupakov/Data/STM32/STM32Cube/Repository/STM32Cube_FW_F4_V1.10.0/Drivers/STM32F4xx_HAL_Driver/Src/stm32f4xx_hal_wwdg.c **** /** @defgroup WWDG WWDG
 108:/home/vadimstupakov/Data/STM32/STM32Cube/Repository/STM32Cube_FW_F4_V1.10.0/Drivers/STM32F4xx_HAL_Driver/Src/stm32f4xx_hal_wwdg.c ****   * @brief WWDG HAL module driver.
 109:/home/vadimstupakov/Data/STM32/STM32Cube/Repository/STM32Cube_FW_F4_V1.10.0/Drivers/STM32F4xx_HAL_Driver/Src/stm32f4xx_hal_wwdg.c ****   * @{
 110:/home/vadimstupakov/Data/STM32/STM32Cube/Repository/STM32Cube_FW_F4_V1.10.0/Drivers/STM32F4xx_HAL_Driver/Src/stm32f4xx_hal_wwdg.c ****   */
 111:/home/vadimstupakov/Data/STM32/STM32Cube/Repository/STM32Cube_FW_F4_V1.10.0/Drivers/STM32F4xx_HAL_Driver/Src/stm32f4xx_hal_wwdg.c **** 
 112:/home/vadimstupakov/Data/STM32/STM32Cube/Repository/STM32Cube_FW_F4_V1.10.0/Drivers/STM32F4xx_HAL_Driver/Src/stm32f4xx_hal_wwdg.c **** #ifdef HAL_WWDG_MODULE_ENABLED
 113:/home/vadimstupakov/Data/STM32/STM32Cube/Repository/STM32Cube_FW_F4_V1.10.0/Drivers/STM32F4xx_HAL_Driver/Src/stm32f4xx_hal_wwdg.c **** 
 114:/home/vadimstupakov/Data/STM32/STM32Cube/Repository/STM32Cube_FW_F4_V1.10.0/Drivers/STM32F4xx_HAL_Driver/Src/stm32f4xx_hal_wwdg.c **** /* Private typedef -----------------------------------------------------------*/
 115:/home/vadimstupakov/Data/STM32/STM32Cube/Repository/STM32Cube_FW_F4_V1.10.0/Drivers/STM32F4xx_HAL_Driver/Src/stm32f4xx_hal_wwdg.c **** /* Private define ------------------------------------------------------------*/
 116:/home/vadimstupakov/Data/STM32/STM32Cube/Repository/STM32Cube_FW_F4_V1.10.0/Drivers/STM32F4xx_HAL_Driver/Src/stm32f4xx_hal_wwdg.c **** /* Private macro -------------------------------------------------------------*/
 117:/home/vadimstupakov/Data/STM32/STM32Cube/Repository/STM32Cube_FW_F4_V1.10.0/Drivers/STM32F4xx_HAL_Driver/Src/stm32f4xx_hal_wwdg.c **** /* Private variables ---------------------------------------------------------*/
 118:/home/vadimstupakov/Data/STM32/STM32Cube/Repository/STM32Cube_FW_F4_V1.10.0/Drivers/STM32F4xx_HAL_Driver/Src/stm32f4xx_hal_wwdg.c **** /* Private function prototypes -----------------------------------------------*/
 119:/home/vadimstupakov/Data/STM32/STM32Cube/Repository/STM32Cube_FW_F4_V1.10.0/Drivers/STM32F4xx_HAL_Driver/Src/stm32f4xx_hal_wwdg.c **** /* Exported functions --------------------------------------------------------*/
 120:/home/vadimstupakov/Data/STM32/STM32Cube/Repository/STM32Cube_FW_F4_V1.10.0/Drivers/STM32F4xx_HAL_Driver/Src/stm32f4xx_hal_wwdg.c **** /** @defgroup WWDG_Exported_Functions WWDG Exported Functions
 121:/home/vadimstupakov/Data/STM32/STM32Cube/Repository/STM32Cube_FW_F4_V1.10.0/Drivers/STM32F4xx_HAL_Driver/Src/stm32f4xx_hal_wwdg.c ****   * @{
 122:/home/vadimstupakov/Data/STM32/STM32Cube/Repository/STM32Cube_FW_F4_V1.10.0/Drivers/STM32F4xx_HAL_Driver/Src/stm32f4xx_hal_wwdg.c ****   */
 123:/home/vadimstupakov/Data/STM32/STM32Cube/Repository/STM32Cube_FW_F4_V1.10.0/Drivers/STM32F4xx_HAL_Driver/Src/stm32f4xx_hal_wwdg.c **** 
 124:/home/vadimstupakov/Data/STM32/STM32Cube/Repository/STM32Cube_FW_F4_V1.10.0/Drivers/STM32F4xx_HAL_Driver/Src/stm32f4xx_hal_wwdg.c **** /** @defgroup WWDG_Exported_Functions_Group1 Initialization and de-initialization functions 
 125:/home/vadimstupakov/Data/STM32/STM32Cube/Repository/STM32Cube_FW_F4_V1.10.0/Drivers/STM32F4xx_HAL_Driver/Src/stm32f4xx_hal_wwdg.c ****  *  @brief    Initialization and Configuration functions. 
 126:/home/vadimstupakov/Data/STM32/STM32Cube/Repository/STM32Cube_FW_F4_V1.10.0/Drivers/STM32F4xx_HAL_Driver/Src/stm32f4xx_hal_wwdg.c ****  *
 127:/home/vadimstupakov/Data/STM32/STM32Cube/Repository/STM32Cube_FW_F4_V1.10.0/Drivers/STM32F4xx_HAL_Driver/Src/stm32f4xx_hal_wwdg.c **** @verbatim    
 128:/home/vadimstupakov/Data/STM32/STM32Cube/Repository/STM32Cube_FW_F4_V1.10.0/Drivers/STM32F4xx_HAL_Driver/Src/stm32f4xx_hal_wwdg.c ****   ==============================================================================
 129:/home/vadimstupakov/Data/STM32/STM32Cube/Repository/STM32Cube_FW_F4_V1.10.0/Drivers/STM32F4xx_HAL_Driver/Src/stm32f4xx_hal_wwdg.c ****           ##### Initialization and de-initialization functions #####
 130:/home/vadimstupakov/Data/STM32/STM32Cube/Repository/STM32Cube_FW_F4_V1.10.0/Drivers/STM32F4xx_HAL_Driver/Src/stm32f4xx_hal_wwdg.c ****   ==============================================================================
 131:/home/vadimstupakov/Data/STM32/STM32Cube/Repository/STM32Cube_FW_F4_V1.10.0/Drivers/STM32F4xx_HAL_Driver/Src/stm32f4xx_hal_wwdg.c ****   [..]  
 132:/home/vadimstupakov/Data/STM32/STM32Cube/Repository/STM32Cube_FW_F4_V1.10.0/Drivers/STM32F4xx_HAL_Driver/Src/stm32f4xx_hal_wwdg.c ****     This section provides functions allowing to:
 133:/home/vadimstupakov/Data/STM32/STM32Cube/Repository/STM32Cube_FW_F4_V1.10.0/Drivers/STM32F4xx_HAL_Driver/Src/stm32f4xx_hal_wwdg.c ****     (+) Initialize the WWDG according to the specified parameters 
 134:/home/vadimstupakov/Data/STM32/STM32Cube/Repository/STM32Cube_FW_F4_V1.10.0/Drivers/STM32F4xx_HAL_Driver/Src/stm32f4xx_hal_wwdg.c ****         in the WWDG_InitTypeDef and create the associated handle
 135:/home/vadimstupakov/Data/STM32/STM32Cube/Repository/STM32Cube_FW_F4_V1.10.0/Drivers/STM32F4xx_HAL_Driver/Src/stm32f4xx_hal_wwdg.c ****     (+) DeInitialize the WWDG peripheral
 136:/home/vadimstupakov/Data/STM32/STM32Cube/Repository/STM32Cube_FW_F4_V1.10.0/Drivers/STM32F4xx_HAL_Driver/Src/stm32f4xx_hal_wwdg.c ****     (+) Initialize the WWDG MSP
 137:/home/vadimstupakov/Data/STM32/STM32Cube/Repository/STM32Cube_FW_F4_V1.10.0/Drivers/STM32F4xx_HAL_Driver/Src/stm32f4xx_hal_wwdg.c ****     (+) DeInitialize the WWDG MSP 
 138:/home/vadimstupakov/Data/STM32/STM32Cube/Repository/STM32Cube_FW_F4_V1.10.0/Drivers/STM32F4xx_HAL_Driver/Src/stm32f4xx_hal_wwdg.c ****  
 139:/home/vadimstupakov/Data/STM32/STM32Cube/Repository/STM32Cube_FW_F4_V1.10.0/Drivers/STM32F4xx_HAL_Driver/Src/stm32f4xx_hal_wwdg.c **** @endverbatim
 140:/home/vadimstupakov/Data/STM32/STM32Cube/Repository/STM32Cube_FW_F4_V1.10.0/Drivers/STM32F4xx_HAL_Driver/Src/stm32f4xx_hal_wwdg.c ****   * @{
 141:/home/vadimstupakov/Data/STM32/STM32Cube/Repository/STM32Cube_FW_F4_V1.10.0/Drivers/STM32F4xx_HAL_Driver/Src/stm32f4xx_hal_wwdg.c ****   */
 142:/home/vadimstupakov/Data/STM32/STM32Cube/Repository/STM32Cube_FW_F4_V1.10.0/Drivers/STM32F4xx_HAL_Driver/Src/stm32f4xx_hal_wwdg.c **** 
 143:/home/vadimstupakov/Data/STM32/STM32Cube/Repository/STM32Cube_FW_F4_V1.10.0/Drivers/STM32F4xx_HAL_Driver/Src/stm32f4xx_hal_wwdg.c **** /**
 144:/home/vadimstupakov/Data/STM32/STM32Cube/Repository/STM32Cube_FW_F4_V1.10.0/Drivers/STM32F4xx_HAL_Driver/Src/stm32f4xx_hal_wwdg.c ****   * @brief  Initializes the WWDG according to the specified
 145:/home/vadimstupakov/Data/STM32/STM32Cube/Repository/STM32Cube_FW_F4_V1.10.0/Drivers/STM32F4xx_HAL_Driver/Src/stm32f4xx_hal_wwdg.c ****   *         parameters in the WWDG_InitTypeDef and creates the associated handle.
ARM GAS  /tmp/cc70W8W1.s 			page 4


 146:/home/vadimstupakov/Data/STM32/STM32Cube/Repository/STM32Cube_FW_F4_V1.10.0/Drivers/STM32F4xx_HAL_Driver/Src/stm32f4xx_hal_wwdg.c ****   * @param  hwwdg: pointer to a WWDG_HandleTypeDef structure that contains
 147:/home/vadimstupakov/Data/STM32/STM32Cube/Repository/STM32Cube_FW_F4_V1.10.0/Drivers/STM32F4xx_HAL_Driver/Src/stm32f4xx_hal_wwdg.c ****   *              the configuration information for the specified WWDG module.
 148:/home/vadimstupakov/Data/STM32/STM32Cube/Repository/STM32Cube_FW_F4_V1.10.0/Drivers/STM32F4xx_HAL_Driver/Src/stm32f4xx_hal_wwdg.c ****   * @retval HAL status
 149:/home/vadimstupakov/Data/STM32/STM32Cube/Repository/STM32Cube_FW_F4_V1.10.0/Drivers/STM32F4xx_HAL_Driver/Src/stm32f4xx_hal_wwdg.c ****   */
 150:/home/vadimstupakov/Data/STM32/STM32Cube/Repository/STM32Cube_FW_F4_V1.10.0/Drivers/STM32F4xx_HAL_Driver/Src/stm32f4xx_hal_wwdg.c **** HAL_StatusTypeDef HAL_WWDG_Init(WWDG_HandleTypeDef *hwwdg)
 151:/home/vadimstupakov/Data/STM32/STM32Cube/Repository/STM32Cube_FW_F4_V1.10.0/Drivers/STM32F4xx_HAL_Driver/Src/stm32f4xx_hal_wwdg.c **** {
  28              		.loc 1 151 0
  29              		.cfi_startproc
  30              		@ args = 0, pretend = 0, frame = 8
  31              		@ frame_needed = 1, uses_anonymous_args = 0
  32 0000 80B5     		push	{r7, lr}
  33              	.LCFI0:
  34              		.cfi_def_cfa_offset 8
  35              		.cfi_offset 7, -8
  36              		.cfi_offset 14, -4
  37 0002 82B0     		sub	sp, sp, #8
  38              	.LCFI1:
  39              		.cfi_def_cfa_offset 16
  40 0004 00AF     		add	r7, sp, #0
  41              	.LCFI2:
  42              		.cfi_def_cfa_register 7
  43 0006 7860     		str	r0, [r7, #4]
 152:/home/vadimstupakov/Data/STM32/STM32Cube/Repository/STM32Cube_FW_F4_V1.10.0/Drivers/STM32F4xx_HAL_Driver/Src/stm32f4xx_hal_wwdg.c ****   /* Check the WWDG handle allocation */
 153:/home/vadimstupakov/Data/STM32/STM32Cube/Repository/STM32Cube_FW_F4_V1.10.0/Drivers/STM32F4xx_HAL_Driver/Src/stm32f4xx_hal_wwdg.c ****   if(hwwdg == NULL)
  44              		.loc 1 153 0
  45 0008 7B68     		ldr	r3, [r7, #4]
  46 000a 002B     		cmp	r3, #0
  47 000c 01D1     		bne	.L2
 154:/home/vadimstupakov/Data/STM32/STM32Cube/Repository/STM32Cube_FW_F4_V1.10.0/Drivers/STM32F4xx_HAL_Driver/Src/stm32f4xx_hal_wwdg.c ****   {
 155:/home/vadimstupakov/Data/STM32/STM32Cube/Repository/STM32Cube_FW_F4_V1.10.0/Drivers/STM32F4xx_HAL_Driver/Src/stm32f4xx_hal_wwdg.c ****     return HAL_ERROR;
  48              		.loc 1 155 0
  49 000e 0123     		movs	r3, #1
  50 0010 2CE0     		b	.L3
  51              	.L2:
 156:/home/vadimstupakov/Data/STM32/STM32Cube/Repository/STM32Cube_FW_F4_V1.10.0/Drivers/STM32F4xx_HAL_Driver/Src/stm32f4xx_hal_wwdg.c ****   }
 157:/home/vadimstupakov/Data/STM32/STM32Cube/Repository/STM32Cube_FW_F4_V1.10.0/Drivers/STM32F4xx_HAL_Driver/Src/stm32f4xx_hal_wwdg.c **** 
 158:/home/vadimstupakov/Data/STM32/STM32Cube/Repository/STM32Cube_FW_F4_V1.10.0/Drivers/STM32F4xx_HAL_Driver/Src/stm32f4xx_hal_wwdg.c ****   /* Check the parameters */
 159:/home/vadimstupakov/Data/STM32/STM32Cube/Repository/STM32Cube_FW_F4_V1.10.0/Drivers/STM32F4xx_HAL_Driver/Src/stm32f4xx_hal_wwdg.c ****   assert_param(IS_WWDG_ALL_INSTANCE(hwwdg->Instance));
 160:/home/vadimstupakov/Data/STM32/STM32Cube/Repository/STM32Cube_FW_F4_V1.10.0/Drivers/STM32F4xx_HAL_Driver/Src/stm32f4xx_hal_wwdg.c ****   assert_param(IS_WWDG_PRESCALER(hwwdg->Init.Prescaler));
 161:/home/vadimstupakov/Data/STM32/STM32Cube/Repository/STM32Cube_FW_F4_V1.10.0/Drivers/STM32F4xx_HAL_Driver/Src/stm32f4xx_hal_wwdg.c ****   assert_param(IS_WWDG_WINDOW(hwwdg->Init.Window)); 
 162:/home/vadimstupakov/Data/STM32/STM32Cube/Repository/STM32Cube_FW_F4_V1.10.0/Drivers/STM32F4xx_HAL_Driver/Src/stm32f4xx_hal_wwdg.c ****   assert_param(IS_WWDG_COUNTER(hwwdg->Init.Counter)); 
 163:/home/vadimstupakov/Data/STM32/STM32Cube/Repository/STM32Cube_FW_F4_V1.10.0/Drivers/STM32F4xx_HAL_Driver/Src/stm32f4xx_hal_wwdg.c ****   
 164:/home/vadimstupakov/Data/STM32/STM32Cube/Repository/STM32Cube_FW_F4_V1.10.0/Drivers/STM32F4xx_HAL_Driver/Src/stm32f4xx_hal_wwdg.c ****   if(hwwdg->State == HAL_WWDG_STATE_RESET)
  52              		.loc 1 164 0
  53 0012 7B68     		ldr	r3, [r7, #4]
  54 0014 5B7C     		ldrb	r3, [r3, #17]
  55 0016 DBB2     		uxtb	r3, r3
  56 0018 002B     		cmp	r3, #0
  57 001a 05D1     		bne	.L4
 165:/home/vadimstupakov/Data/STM32/STM32Cube/Repository/STM32Cube_FW_F4_V1.10.0/Drivers/STM32F4xx_HAL_Driver/Src/stm32f4xx_hal_wwdg.c ****   {
 166:/home/vadimstupakov/Data/STM32/STM32Cube/Repository/STM32Cube_FW_F4_V1.10.0/Drivers/STM32F4xx_HAL_Driver/Src/stm32f4xx_hal_wwdg.c ****     /* Allocate lock resource and initialize it */
 167:/home/vadimstupakov/Data/STM32/STM32Cube/Repository/STM32Cube_FW_F4_V1.10.0/Drivers/STM32F4xx_HAL_Driver/Src/stm32f4xx_hal_wwdg.c ****     hwwdg->Lock = HAL_UNLOCKED;
  58              		.loc 1 167 0
  59 001c 7B68     		ldr	r3, [r7, #4]
  60 001e 0022     		movs	r2, #0
  61 0020 1A74     		strb	r2, [r3, #16]
 168:/home/vadimstupakov/Data/STM32/STM32Cube/Repository/STM32Cube_FW_F4_V1.10.0/Drivers/STM32F4xx_HAL_Driver/Src/stm32f4xx_hal_wwdg.c ****     /* Init the low level hardware */
ARM GAS  /tmp/cc70W8W1.s 			page 5


 169:/home/vadimstupakov/Data/STM32/STM32Cube/Repository/STM32Cube_FW_F4_V1.10.0/Drivers/STM32F4xx_HAL_Driver/Src/stm32f4xx_hal_wwdg.c ****     HAL_WWDG_MspInit(hwwdg);
  62              		.loc 1 169 0
  63 0022 7868     		ldr	r0, [r7, #4]
  64 0024 FFF7FEFF 		bl	HAL_WWDG_MspInit
  65              	.L4:
 170:/home/vadimstupakov/Data/STM32/STM32Cube/Repository/STM32Cube_FW_F4_V1.10.0/Drivers/STM32F4xx_HAL_Driver/Src/stm32f4xx_hal_wwdg.c ****   }
 171:/home/vadimstupakov/Data/STM32/STM32Cube/Repository/STM32Cube_FW_F4_V1.10.0/Drivers/STM32F4xx_HAL_Driver/Src/stm32f4xx_hal_wwdg.c ****   
 172:/home/vadimstupakov/Data/STM32/STM32Cube/Repository/STM32Cube_FW_F4_V1.10.0/Drivers/STM32F4xx_HAL_Driver/Src/stm32f4xx_hal_wwdg.c ****   /* Change WWDG peripheral state */
 173:/home/vadimstupakov/Data/STM32/STM32Cube/Repository/STM32Cube_FW_F4_V1.10.0/Drivers/STM32F4xx_HAL_Driver/Src/stm32f4xx_hal_wwdg.c ****   hwwdg->State = HAL_WWDG_STATE_BUSY;
  66              		.loc 1 173 0
  67 0028 7B68     		ldr	r3, [r7, #4]
  68 002a 0222     		movs	r2, #2
  69 002c 5A74     		strb	r2, [r3, #17]
 174:/home/vadimstupakov/Data/STM32/STM32Cube/Repository/STM32Cube_FW_F4_V1.10.0/Drivers/STM32F4xx_HAL_Driver/Src/stm32f4xx_hal_wwdg.c **** 
 175:/home/vadimstupakov/Data/STM32/STM32Cube/Repository/STM32Cube_FW_F4_V1.10.0/Drivers/STM32F4xx_HAL_Driver/Src/stm32f4xx_hal_wwdg.c ****   /* Set WWDG Prescaler and Window */
 176:/home/vadimstupakov/Data/STM32/STM32Cube/Repository/STM32Cube_FW_F4_V1.10.0/Drivers/STM32F4xx_HAL_Driver/Src/stm32f4xx_hal_wwdg.c ****   MODIFY_REG(hwwdg->Instance->CFR, (WWDG_CFR_WDGTB | WWDG_CFR_W), (hwwdg->Init.Prescaler | hwwdg->I
  70              		.loc 1 176 0
  71 002e 7B68     		ldr	r3, [r7, #4]
  72 0030 1A68     		ldr	r2, [r3]
  73 0032 7B68     		ldr	r3, [r7, #4]
  74 0034 1B68     		ldr	r3, [r3]
  75 0036 5B68     		ldr	r3, [r3, #4]
  76 0038 23F4FF73 		bic	r3, r3, #510
  77 003c 23F00103 		bic	r3, r3, #1
  78 0040 7968     		ldr	r1, [r7, #4]
  79 0042 4868     		ldr	r0, [r1, #4]
  80 0044 7968     		ldr	r1, [r7, #4]
  81 0046 8968     		ldr	r1, [r1, #8]
  82 0048 0143     		orrs	r1, r1, r0
  83 004a 0B43     		orrs	r3, r3, r1
  84 004c 5360     		str	r3, [r2, #4]
 177:/home/vadimstupakov/Data/STM32/STM32Cube/Repository/STM32Cube_FW_F4_V1.10.0/Drivers/STM32F4xx_HAL_Driver/Src/stm32f4xx_hal_wwdg.c ****   /* Set WWDG Counter */
 178:/home/vadimstupakov/Data/STM32/STM32Cube/Repository/STM32Cube_FW_F4_V1.10.0/Drivers/STM32F4xx_HAL_Driver/Src/stm32f4xx_hal_wwdg.c ****   MODIFY_REG(hwwdg->Instance->CR, WWDG_CR_T, hwwdg->Init.Counter);
  85              		.loc 1 178 0
  86 004e 7B68     		ldr	r3, [r7, #4]
  87 0050 1B68     		ldr	r3, [r3]
  88 0052 7A68     		ldr	r2, [r7, #4]
  89 0054 1268     		ldr	r2, [r2]
  90 0056 1268     		ldr	r2, [r2]
  91 0058 22F07F01 		bic	r1, r2, #127
  92 005c 7A68     		ldr	r2, [r7, #4]
  93 005e D268     		ldr	r2, [r2, #12]
  94 0060 0A43     		orrs	r2, r2, r1
  95 0062 1A60     		str	r2, [r3]
 179:/home/vadimstupakov/Data/STM32/STM32Cube/Repository/STM32Cube_FW_F4_V1.10.0/Drivers/STM32F4xx_HAL_Driver/Src/stm32f4xx_hal_wwdg.c **** 
 180:/home/vadimstupakov/Data/STM32/STM32Cube/Repository/STM32Cube_FW_F4_V1.10.0/Drivers/STM32F4xx_HAL_Driver/Src/stm32f4xx_hal_wwdg.c ****   /* Change WWDG peripheral state */
 181:/home/vadimstupakov/Data/STM32/STM32Cube/Repository/STM32Cube_FW_F4_V1.10.0/Drivers/STM32F4xx_HAL_Driver/Src/stm32f4xx_hal_wwdg.c ****   hwwdg->State = HAL_WWDG_STATE_READY;
  96              		.loc 1 181 0
  97 0064 7B68     		ldr	r3, [r7, #4]
  98 0066 0122     		movs	r2, #1
  99 0068 5A74     		strb	r2, [r3, #17]
 182:/home/vadimstupakov/Data/STM32/STM32Cube/Repository/STM32Cube_FW_F4_V1.10.0/Drivers/STM32F4xx_HAL_Driver/Src/stm32f4xx_hal_wwdg.c ****   
 183:/home/vadimstupakov/Data/STM32/STM32Cube/Repository/STM32Cube_FW_F4_V1.10.0/Drivers/STM32F4xx_HAL_Driver/Src/stm32f4xx_hal_wwdg.c ****   /* Return function status */
 184:/home/vadimstupakov/Data/STM32/STM32Cube/Repository/STM32Cube_FW_F4_V1.10.0/Drivers/STM32F4xx_HAL_Driver/Src/stm32f4xx_hal_wwdg.c ****   return HAL_OK;
 100              		.loc 1 184 0
 101 006a 0023     		movs	r3, #0
 102              	.L3:
ARM GAS  /tmp/cc70W8W1.s 			page 6


 185:/home/vadimstupakov/Data/STM32/STM32Cube/Repository/STM32Cube_FW_F4_V1.10.0/Drivers/STM32F4xx_HAL_Driver/Src/stm32f4xx_hal_wwdg.c **** }
 103              		.loc 1 185 0
 104 006c 1846     		mov	r0, r3
 105 006e 0837     		adds	r7, r7, #8
 106              	.LCFI3:
 107              		.cfi_def_cfa_offset 8
 108 0070 BD46     		mov	sp, r7
 109              	.LCFI4:
 110              		.cfi_def_cfa_register 13
 111              		@ sp needed
 112 0072 80BD     		pop	{r7, pc}
 113              		.cfi_endproc
 114              	.LFE125:
 116              		.section	.text.HAL_WWDG_DeInit,"ax",%progbits
 117              		.align	2
 118              		.global	HAL_WWDG_DeInit
 119              		.thumb
 120              		.thumb_func
 122              	HAL_WWDG_DeInit:
 123              	.LFB126:
 186:/home/vadimstupakov/Data/STM32/STM32Cube/Repository/STM32Cube_FW_F4_V1.10.0/Drivers/STM32F4xx_HAL_Driver/Src/stm32f4xx_hal_wwdg.c **** 
 187:/home/vadimstupakov/Data/STM32/STM32Cube/Repository/STM32Cube_FW_F4_V1.10.0/Drivers/STM32F4xx_HAL_Driver/Src/stm32f4xx_hal_wwdg.c **** /**
 188:/home/vadimstupakov/Data/STM32/STM32Cube/Repository/STM32Cube_FW_F4_V1.10.0/Drivers/STM32F4xx_HAL_Driver/Src/stm32f4xx_hal_wwdg.c ****   * @brief  DeInitializes the WWDG peripheral. 
 189:/home/vadimstupakov/Data/STM32/STM32Cube/Repository/STM32Cube_FW_F4_V1.10.0/Drivers/STM32F4xx_HAL_Driver/Src/stm32f4xx_hal_wwdg.c ****   * @param  hwwdg: pointer to a WWDG_HandleTypeDef structure that contains
 190:/home/vadimstupakov/Data/STM32/STM32Cube/Repository/STM32Cube_FW_F4_V1.10.0/Drivers/STM32F4xx_HAL_Driver/Src/stm32f4xx_hal_wwdg.c ****   *              the configuration information for the specified WWDG module.
 191:/home/vadimstupakov/Data/STM32/STM32Cube/Repository/STM32Cube_FW_F4_V1.10.0/Drivers/STM32F4xx_HAL_Driver/Src/stm32f4xx_hal_wwdg.c ****   * @retval HAL status
 192:/home/vadimstupakov/Data/STM32/STM32Cube/Repository/STM32Cube_FW_F4_V1.10.0/Drivers/STM32F4xx_HAL_Driver/Src/stm32f4xx_hal_wwdg.c ****   */
 193:/home/vadimstupakov/Data/STM32/STM32Cube/Repository/STM32Cube_FW_F4_V1.10.0/Drivers/STM32F4xx_HAL_Driver/Src/stm32f4xx_hal_wwdg.c **** HAL_StatusTypeDef HAL_WWDG_DeInit(WWDG_HandleTypeDef *hwwdg)
 194:/home/vadimstupakov/Data/STM32/STM32Cube/Repository/STM32Cube_FW_F4_V1.10.0/Drivers/STM32F4xx_HAL_Driver/Src/stm32f4xx_hal_wwdg.c **** { 
 124              		.loc 1 194 0
 125              		.cfi_startproc
 126              		@ args = 0, pretend = 0, frame = 8
 127              		@ frame_needed = 1, uses_anonymous_args = 0
 128 0000 80B5     		push	{r7, lr}
 129              	.LCFI5:
 130              		.cfi_def_cfa_offset 8
 131              		.cfi_offset 7, -8
 132              		.cfi_offset 14, -4
 133 0002 82B0     		sub	sp, sp, #8
 134              	.LCFI6:
 135              		.cfi_def_cfa_offset 16
 136 0004 00AF     		add	r7, sp, #0
 137              	.LCFI7:
 138              		.cfi_def_cfa_register 7
 139 0006 7860     		str	r0, [r7, #4]
 195:/home/vadimstupakov/Data/STM32/STM32Cube/Repository/STM32Cube_FW_F4_V1.10.0/Drivers/STM32F4xx_HAL_Driver/Src/stm32f4xx_hal_wwdg.c ****   /* Check the WWDG handle allocation */
 196:/home/vadimstupakov/Data/STM32/STM32Cube/Repository/STM32Cube_FW_F4_V1.10.0/Drivers/STM32F4xx_HAL_Driver/Src/stm32f4xx_hal_wwdg.c ****   if(hwwdg == NULL)
 140              		.loc 1 196 0
 141 0008 7B68     		ldr	r3, [r7, #4]
 142 000a 002B     		cmp	r3, #0
 143 000c 01D1     		bne	.L6
 197:/home/vadimstupakov/Data/STM32/STM32Cube/Repository/STM32Cube_FW_F4_V1.10.0/Drivers/STM32F4xx_HAL_Driver/Src/stm32f4xx_hal_wwdg.c ****   {
 198:/home/vadimstupakov/Data/STM32/STM32Cube/Repository/STM32Cube_FW_F4_V1.10.0/Drivers/STM32F4xx_HAL_Driver/Src/stm32f4xx_hal_wwdg.c ****     return HAL_ERROR;
 144              		.loc 1 198 0
 145 000e 0123     		movs	r3, #1
 146 0010 18E0     		b	.L7
 147              	.L6:
ARM GAS  /tmp/cc70W8W1.s 			page 7


 199:/home/vadimstupakov/Data/STM32/STM32Cube/Repository/STM32Cube_FW_F4_V1.10.0/Drivers/STM32F4xx_HAL_Driver/Src/stm32f4xx_hal_wwdg.c ****   }
 200:/home/vadimstupakov/Data/STM32/STM32Cube/Repository/STM32Cube_FW_F4_V1.10.0/Drivers/STM32F4xx_HAL_Driver/Src/stm32f4xx_hal_wwdg.c **** 
 201:/home/vadimstupakov/Data/STM32/STM32Cube/Repository/STM32Cube_FW_F4_V1.10.0/Drivers/STM32F4xx_HAL_Driver/Src/stm32f4xx_hal_wwdg.c ****   /* Check the parameters */
 202:/home/vadimstupakov/Data/STM32/STM32Cube/Repository/STM32Cube_FW_F4_V1.10.0/Drivers/STM32F4xx_HAL_Driver/Src/stm32f4xx_hal_wwdg.c ****   assert_param(IS_WWDG_ALL_INSTANCE(hwwdg->Instance));
 203:/home/vadimstupakov/Data/STM32/STM32Cube/Repository/STM32Cube_FW_F4_V1.10.0/Drivers/STM32F4xx_HAL_Driver/Src/stm32f4xx_hal_wwdg.c **** 
 204:/home/vadimstupakov/Data/STM32/STM32Cube/Repository/STM32Cube_FW_F4_V1.10.0/Drivers/STM32F4xx_HAL_Driver/Src/stm32f4xx_hal_wwdg.c ****   /* Change WWDG peripheral state */  
 205:/home/vadimstupakov/Data/STM32/STM32Cube/Repository/STM32Cube_FW_F4_V1.10.0/Drivers/STM32F4xx_HAL_Driver/Src/stm32f4xx_hal_wwdg.c ****   hwwdg->State = HAL_WWDG_STATE_BUSY;
 148              		.loc 1 205 0
 149 0012 7B68     		ldr	r3, [r7, #4]
 150 0014 0222     		movs	r2, #2
 151 0016 5A74     		strb	r2, [r3, #17]
 206:/home/vadimstupakov/Data/STM32/STM32Cube/Repository/STM32Cube_FW_F4_V1.10.0/Drivers/STM32F4xx_HAL_Driver/Src/stm32f4xx_hal_wwdg.c ****   
 207:/home/vadimstupakov/Data/STM32/STM32Cube/Repository/STM32Cube_FW_F4_V1.10.0/Drivers/STM32F4xx_HAL_Driver/Src/stm32f4xx_hal_wwdg.c ****   /* DeInit the low level hardware */
 208:/home/vadimstupakov/Data/STM32/STM32Cube/Repository/STM32Cube_FW_F4_V1.10.0/Drivers/STM32F4xx_HAL_Driver/Src/stm32f4xx_hal_wwdg.c ****   HAL_WWDG_MspDeInit(hwwdg);
 152              		.loc 1 208 0
 153 0018 7868     		ldr	r0, [r7, #4]
 154 001a FFF7FEFF 		bl	HAL_WWDG_MspDeInit
 209:/home/vadimstupakov/Data/STM32/STM32Cube/Repository/STM32Cube_FW_F4_V1.10.0/Drivers/STM32F4xx_HAL_Driver/Src/stm32f4xx_hal_wwdg.c ****   
 210:/home/vadimstupakov/Data/STM32/STM32Cube/Repository/STM32Cube_FW_F4_V1.10.0/Drivers/STM32F4xx_HAL_Driver/Src/stm32f4xx_hal_wwdg.c ****   /* Reset WWDG Control register */
 211:/home/vadimstupakov/Data/STM32/STM32Cube/Repository/STM32Cube_FW_F4_V1.10.0/Drivers/STM32F4xx_HAL_Driver/Src/stm32f4xx_hal_wwdg.c ****   hwwdg->Instance->CR  = (uint32_t)0x0000007F;
 155              		.loc 1 211 0
 156 001e 7B68     		ldr	r3, [r7, #4]
 157 0020 1B68     		ldr	r3, [r3]
 158 0022 7F22     		movs	r2, #127
 159 0024 1A60     		str	r2, [r3]
 212:/home/vadimstupakov/Data/STM32/STM32Cube/Repository/STM32Cube_FW_F4_V1.10.0/Drivers/STM32F4xx_HAL_Driver/Src/stm32f4xx_hal_wwdg.c ****   
 213:/home/vadimstupakov/Data/STM32/STM32Cube/Repository/STM32Cube_FW_F4_V1.10.0/Drivers/STM32F4xx_HAL_Driver/Src/stm32f4xx_hal_wwdg.c ****   /* Reset WWDG Configuration register */
 214:/home/vadimstupakov/Data/STM32/STM32Cube/Repository/STM32Cube_FW_F4_V1.10.0/Drivers/STM32F4xx_HAL_Driver/Src/stm32f4xx_hal_wwdg.c ****   hwwdg->Instance->CFR = (uint32_t)0x0000007F;
 160              		.loc 1 214 0
 161 0026 7B68     		ldr	r3, [r7, #4]
 162 0028 1B68     		ldr	r3, [r3]
 163 002a 7F22     		movs	r2, #127
 164 002c 5A60     		str	r2, [r3, #4]
 215:/home/vadimstupakov/Data/STM32/STM32Cube/Repository/STM32Cube_FW_F4_V1.10.0/Drivers/STM32F4xx_HAL_Driver/Src/stm32f4xx_hal_wwdg.c ****   
 216:/home/vadimstupakov/Data/STM32/STM32Cube/Repository/STM32Cube_FW_F4_V1.10.0/Drivers/STM32F4xx_HAL_Driver/Src/stm32f4xx_hal_wwdg.c ****   /* Reset WWDG Status register */
 217:/home/vadimstupakov/Data/STM32/STM32Cube/Repository/STM32Cube_FW_F4_V1.10.0/Drivers/STM32F4xx_HAL_Driver/Src/stm32f4xx_hal_wwdg.c ****   hwwdg->Instance->SR  = 0; 
 165              		.loc 1 217 0
 166 002e 7B68     		ldr	r3, [r7, #4]
 167 0030 1B68     		ldr	r3, [r3]
 168 0032 0022     		movs	r2, #0
 169 0034 9A60     		str	r2, [r3, #8]
 218:/home/vadimstupakov/Data/STM32/STM32Cube/Repository/STM32Cube_FW_F4_V1.10.0/Drivers/STM32F4xx_HAL_Driver/Src/stm32f4xx_hal_wwdg.c ****   
 219:/home/vadimstupakov/Data/STM32/STM32Cube/Repository/STM32Cube_FW_F4_V1.10.0/Drivers/STM32F4xx_HAL_Driver/Src/stm32f4xx_hal_wwdg.c ****   /* Change WWDG peripheral state */    
 220:/home/vadimstupakov/Data/STM32/STM32Cube/Repository/STM32Cube_FW_F4_V1.10.0/Drivers/STM32F4xx_HAL_Driver/Src/stm32f4xx_hal_wwdg.c ****   hwwdg->State = HAL_WWDG_STATE_RESET; 
 170              		.loc 1 220 0
 171 0036 7B68     		ldr	r3, [r7, #4]
 172 0038 0022     		movs	r2, #0
 173 003a 5A74     		strb	r2, [r3, #17]
 221:/home/vadimstupakov/Data/STM32/STM32Cube/Repository/STM32Cube_FW_F4_V1.10.0/Drivers/STM32F4xx_HAL_Driver/Src/stm32f4xx_hal_wwdg.c **** 
 222:/home/vadimstupakov/Data/STM32/STM32Cube/Repository/STM32Cube_FW_F4_V1.10.0/Drivers/STM32F4xx_HAL_Driver/Src/stm32f4xx_hal_wwdg.c ****   /* Release Lock */
 223:/home/vadimstupakov/Data/STM32/STM32Cube/Repository/STM32Cube_FW_F4_V1.10.0/Drivers/STM32F4xx_HAL_Driver/Src/stm32f4xx_hal_wwdg.c ****   __HAL_UNLOCK(hwwdg);
 174              		.loc 1 223 0
 175 003c 7B68     		ldr	r3, [r7, #4]
 176 003e 0022     		movs	r2, #0
 177 0040 1A74     		strb	r2, [r3, #16]
 224:/home/vadimstupakov/Data/STM32/STM32Cube/Repository/STM32Cube_FW_F4_V1.10.0/Drivers/STM32F4xx_HAL_Driver/Src/stm32f4xx_hal_wwdg.c **** 
 225:/home/vadimstupakov/Data/STM32/STM32Cube/Repository/STM32Cube_FW_F4_V1.10.0/Drivers/STM32F4xx_HAL_Driver/Src/stm32f4xx_hal_wwdg.c ****   /* Return function status */
ARM GAS  /tmp/cc70W8W1.s 			page 8


 226:/home/vadimstupakov/Data/STM32/STM32Cube/Repository/STM32Cube_FW_F4_V1.10.0/Drivers/STM32F4xx_HAL_Driver/Src/stm32f4xx_hal_wwdg.c ****   return HAL_OK;
 178              		.loc 1 226 0
 179 0042 0023     		movs	r3, #0
 180              	.L7:
 227:/home/vadimstupakov/Data/STM32/STM32Cube/Repository/STM32Cube_FW_F4_V1.10.0/Drivers/STM32F4xx_HAL_Driver/Src/stm32f4xx_hal_wwdg.c **** }
 181              		.loc 1 227 0
 182 0044 1846     		mov	r0, r3
 183 0046 0837     		adds	r7, r7, #8
 184              	.LCFI8:
 185              		.cfi_def_cfa_offset 8
 186 0048 BD46     		mov	sp, r7
 187              	.LCFI9:
 188              		.cfi_def_cfa_register 13
 189              		@ sp needed
 190 004a 80BD     		pop	{r7, pc}
 191              		.cfi_endproc
 192              	.LFE126:
 194              		.section	.text.HAL_WWDG_MspInit,"ax",%progbits
 195              		.align	2
 196              		.weak	HAL_WWDG_MspInit
 197              		.thumb
 198              		.thumb_func
 200              	HAL_WWDG_MspInit:
 201              	.LFB127:
 228:/home/vadimstupakov/Data/STM32/STM32Cube/Repository/STM32Cube_FW_F4_V1.10.0/Drivers/STM32F4xx_HAL_Driver/Src/stm32f4xx_hal_wwdg.c **** 
 229:/home/vadimstupakov/Data/STM32/STM32Cube/Repository/STM32Cube_FW_F4_V1.10.0/Drivers/STM32F4xx_HAL_Driver/Src/stm32f4xx_hal_wwdg.c **** /**
 230:/home/vadimstupakov/Data/STM32/STM32Cube/Repository/STM32Cube_FW_F4_V1.10.0/Drivers/STM32F4xx_HAL_Driver/Src/stm32f4xx_hal_wwdg.c ****   * @brief  Initializes the WWDG MSP.
 231:/home/vadimstupakov/Data/STM32/STM32Cube/Repository/STM32Cube_FW_F4_V1.10.0/Drivers/STM32F4xx_HAL_Driver/Src/stm32f4xx_hal_wwdg.c ****   * @param  hwwdg: pointer to a WWDG_HandleTypeDef structure that contains
 232:/home/vadimstupakov/Data/STM32/STM32Cube/Repository/STM32Cube_FW_F4_V1.10.0/Drivers/STM32F4xx_HAL_Driver/Src/stm32f4xx_hal_wwdg.c ****   *              the configuration information for the specified WWDG module.
 233:/home/vadimstupakov/Data/STM32/STM32Cube/Repository/STM32Cube_FW_F4_V1.10.0/Drivers/STM32F4xx_HAL_Driver/Src/stm32f4xx_hal_wwdg.c ****   * @retval None
 234:/home/vadimstupakov/Data/STM32/STM32Cube/Repository/STM32Cube_FW_F4_V1.10.0/Drivers/STM32F4xx_HAL_Driver/Src/stm32f4xx_hal_wwdg.c ****   */
 235:/home/vadimstupakov/Data/STM32/STM32Cube/Repository/STM32Cube_FW_F4_V1.10.0/Drivers/STM32F4xx_HAL_Driver/Src/stm32f4xx_hal_wwdg.c **** __weak void HAL_WWDG_MspInit(WWDG_HandleTypeDef *hwwdg)
 236:/home/vadimstupakov/Data/STM32/STM32Cube/Repository/STM32Cube_FW_F4_V1.10.0/Drivers/STM32F4xx_HAL_Driver/Src/stm32f4xx_hal_wwdg.c **** {
 202              		.loc 1 236 0
 203              		.cfi_startproc
 204              		@ args = 0, pretend = 0, frame = 8
 205              		@ frame_needed = 1, uses_anonymous_args = 0
 206              		@ link register save eliminated.
 207 0000 80B4     		push	{r7}
 208              	.LCFI10:
 209              		.cfi_def_cfa_offset 4
 210              		.cfi_offset 7, -4
 211 0002 83B0     		sub	sp, sp, #12
 212              	.LCFI11:
 213              		.cfi_def_cfa_offset 16
 214 0004 00AF     		add	r7, sp, #0
 215              	.LCFI12:
 216              		.cfi_def_cfa_register 7
 217 0006 7860     		str	r0, [r7, #4]
 237:/home/vadimstupakov/Data/STM32/STM32Cube/Repository/STM32Cube_FW_F4_V1.10.0/Drivers/STM32F4xx_HAL_Driver/Src/stm32f4xx_hal_wwdg.c ****   /* Prevent unused argument(s) compilation warning */
 238:/home/vadimstupakov/Data/STM32/STM32Cube/Repository/STM32Cube_FW_F4_V1.10.0/Drivers/STM32F4xx_HAL_Driver/Src/stm32f4xx_hal_wwdg.c ****   UNUSED(hwwdg);
 239:/home/vadimstupakov/Data/STM32/STM32Cube/Repository/STM32Cube_FW_F4_V1.10.0/Drivers/STM32F4xx_HAL_Driver/Src/stm32f4xx_hal_wwdg.c ****   /* NOTE: This function Should not be modified, when the callback is needed,
 240:/home/vadimstupakov/Data/STM32/STM32Cube/Repository/STM32Cube_FW_F4_V1.10.0/Drivers/STM32F4xx_HAL_Driver/Src/stm32f4xx_hal_wwdg.c ****            the HAL_WWDG_MspInit could be implemented in the user file
 241:/home/vadimstupakov/Data/STM32/STM32Cube/Repository/STM32Cube_FW_F4_V1.10.0/Drivers/STM32F4xx_HAL_Driver/Src/stm32f4xx_hal_wwdg.c ****    */
 242:/home/vadimstupakov/Data/STM32/STM32Cube/Repository/STM32Cube_FW_F4_V1.10.0/Drivers/STM32F4xx_HAL_Driver/Src/stm32f4xx_hal_wwdg.c **** }
 218              		.loc 1 242 0
 219 0008 0C37     		adds	r7, r7, #12
ARM GAS  /tmp/cc70W8W1.s 			page 9


 220              	.LCFI13:
 221              		.cfi_def_cfa_offset 4
 222 000a BD46     		mov	sp, r7
 223              	.LCFI14:
 224              		.cfi_def_cfa_register 13
 225              		@ sp needed
 226 000c 5DF8047B 		ldr	r7, [sp], #4
 227              	.LCFI15:
 228              		.cfi_restore 7
 229              		.cfi_def_cfa_offset 0
 230 0010 7047     		bx	lr
 231              		.cfi_endproc
 232              	.LFE127:
 234 0012 00BF     		.section	.text.HAL_WWDG_MspDeInit,"ax",%progbits
 235              		.align	2
 236              		.weak	HAL_WWDG_MspDeInit
 237              		.thumb
 238              		.thumb_func
 240              	HAL_WWDG_MspDeInit:
 241              	.LFB128:
 243:/home/vadimstupakov/Data/STM32/STM32Cube/Repository/STM32Cube_FW_F4_V1.10.0/Drivers/STM32F4xx_HAL_Driver/Src/stm32f4xx_hal_wwdg.c **** 
 244:/home/vadimstupakov/Data/STM32/STM32Cube/Repository/STM32Cube_FW_F4_V1.10.0/Drivers/STM32F4xx_HAL_Driver/Src/stm32f4xx_hal_wwdg.c **** /**
 245:/home/vadimstupakov/Data/STM32/STM32Cube/Repository/STM32Cube_FW_F4_V1.10.0/Drivers/STM32F4xx_HAL_Driver/Src/stm32f4xx_hal_wwdg.c ****   * @brief  DeInitializes the WWDG MSP.
 246:/home/vadimstupakov/Data/STM32/STM32Cube/Repository/STM32Cube_FW_F4_V1.10.0/Drivers/STM32F4xx_HAL_Driver/Src/stm32f4xx_hal_wwdg.c ****   * @param  hwwdg: pointer to a WWDG_HandleTypeDef structure that contains
 247:/home/vadimstupakov/Data/STM32/STM32Cube/Repository/STM32Cube_FW_F4_V1.10.0/Drivers/STM32F4xx_HAL_Driver/Src/stm32f4xx_hal_wwdg.c ****   *              the configuration information for the specified WWDG module.
 248:/home/vadimstupakov/Data/STM32/STM32Cube/Repository/STM32Cube_FW_F4_V1.10.0/Drivers/STM32F4xx_HAL_Driver/Src/stm32f4xx_hal_wwdg.c ****   * @retval None
 249:/home/vadimstupakov/Data/STM32/STM32Cube/Repository/STM32Cube_FW_F4_V1.10.0/Drivers/STM32F4xx_HAL_Driver/Src/stm32f4xx_hal_wwdg.c ****   */
 250:/home/vadimstupakov/Data/STM32/STM32Cube/Repository/STM32Cube_FW_F4_V1.10.0/Drivers/STM32F4xx_HAL_Driver/Src/stm32f4xx_hal_wwdg.c **** __weak void HAL_WWDG_MspDeInit(WWDG_HandleTypeDef *hwwdg)
 251:/home/vadimstupakov/Data/STM32/STM32Cube/Repository/STM32Cube_FW_F4_V1.10.0/Drivers/STM32F4xx_HAL_Driver/Src/stm32f4xx_hal_wwdg.c **** {
 242              		.loc 1 251 0
 243              		.cfi_startproc
 244              		@ args = 0, pretend = 0, frame = 8
 245              		@ frame_needed = 1, uses_anonymous_args = 0
 246              		@ link register save eliminated.
 247 0000 80B4     		push	{r7}
 248              	.LCFI16:
 249              		.cfi_def_cfa_offset 4
 250              		.cfi_offset 7, -4
 251 0002 83B0     		sub	sp, sp, #12
 252              	.LCFI17:
 253              		.cfi_def_cfa_offset 16
 254 0004 00AF     		add	r7, sp, #0
 255              	.LCFI18:
 256              		.cfi_def_cfa_register 7
 257 0006 7860     		str	r0, [r7, #4]
 252:/home/vadimstupakov/Data/STM32/STM32Cube/Repository/STM32Cube_FW_F4_V1.10.0/Drivers/STM32F4xx_HAL_Driver/Src/stm32f4xx_hal_wwdg.c ****   /* Prevent unused argument(s) compilation warning */
 253:/home/vadimstupakov/Data/STM32/STM32Cube/Repository/STM32Cube_FW_F4_V1.10.0/Drivers/STM32F4xx_HAL_Driver/Src/stm32f4xx_hal_wwdg.c ****   UNUSED(hwwdg);
 254:/home/vadimstupakov/Data/STM32/STM32Cube/Repository/STM32Cube_FW_F4_V1.10.0/Drivers/STM32F4xx_HAL_Driver/Src/stm32f4xx_hal_wwdg.c ****   /* NOTE: This function Should not be modified, when the callback is needed,
 255:/home/vadimstupakov/Data/STM32/STM32Cube/Repository/STM32Cube_FW_F4_V1.10.0/Drivers/STM32F4xx_HAL_Driver/Src/stm32f4xx_hal_wwdg.c ****            the HAL_WWDG_MspDeInit could be implemented in the user file
 256:/home/vadimstupakov/Data/STM32/STM32Cube/Repository/STM32Cube_FW_F4_V1.10.0/Drivers/STM32F4xx_HAL_Driver/Src/stm32f4xx_hal_wwdg.c ****    */
 257:/home/vadimstupakov/Data/STM32/STM32Cube/Repository/STM32Cube_FW_F4_V1.10.0/Drivers/STM32F4xx_HAL_Driver/Src/stm32f4xx_hal_wwdg.c **** }
 258              		.loc 1 257 0
 259 0008 0C37     		adds	r7, r7, #12
 260              	.LCFI19:
 261              		.cfi_def_cfa_offset 4
 262 000a BD46     		mov	sp, r7
 263              	.LCFI20:
ARM GAS  /tmp/cc70W8W1.s 			page 10


 264              		.cfi_def_cfa_register 13
 265              		@ sp needed
 266 000c 5DF8047B 		ldr	r7, [sp], #4
 267              	.LCFI21:
 268              		.cfi_restore 7
 269              		.cfi_def_cfa_offset 0
 270 0010 7047     		bx	lr
 271              		.cfi_endproc
 272              	.LFE128:
 274 0012 00BF     		.section	.text.HAL_WWDG_Start,"ax",%progbits
 275              		.align	2
 276              		.global	HAL_WWDG_Start
 277              		.thumb
 278              		.thumb_func
 280              	HAL_WWDG_Start:
 281              	.LFB129:
 258:/home/vadimstupakov/Data/STM32/STM32Cube/Repository/STM32Cube_FW_F4_V1.10.0/Drivers/STM32F4xx_HAL_Driver/Src/stm32f4xx_hal_wwdg.c **** 
 259:/home/vadimstupakov/Data/STM32/STM32Cube/Repository/STM32Cube_FW_F4_V1.10.0/Drivers/STM32F4xx_HAL_Driver/Src/stm32f4xx_hal_wwdg.c **** /**
 260:/home/vadimstupakov/Data/STM32/STM32Cube/Repository/STM32Cube_FW_F4_V1.10.0/Drivers/STM32F4xx_HAL_Driver/Src/stm32f4xx_hal_wwdg.c ****   * @}
 261:/home/vadimstupakov/Data/STM32/STM32Cube/Repository/STM32Cube_FW_F4_V1.10.0/Drivers/STM32F4xx_HAL_Driver/Src/stm32f4xx_hal_wwdg.c ****   */
 262:/home/vadimstupakov/Data/STM32/STM32Cube/Repository/STM32Cube_FW_F4_V1.10.0/Drivers/STM32F4xx_HAL_Driver/Src/stm32f4xx_hal_wwdg.c **** 
 263:/home/vadimstupakov/Data/STM32/STM32Cube/Repository/STM32Cube_FW_F4_V1.10.0/Drivers/STM32F4xx_HAL_Driver/Src/stm32f4xx_hal_wwdg.c **** /** @defgroup WWDG_Exported_Functions_Group2 IO operation functions 
 264:/home/vadimstupakov/Data/STM32/STM32Cube/Repository/STM32Cube_FW_F4_V1.10.0/Drivers/STM32F4xx_HAL_Driver/Src/stm32f4xx_hal_wwdg.c ****  *  @brief    IO operation functions 
 265:/home/vadimstupakov/Data/STM32/STM32Cube/Repository/STM32Cube_FW_F4_V1.10.0/Drivers/STM32F4xx_HAL_Driver/Src/stm32f4xx_hal_wwdg.c ****  *
 266:/home/vadimstupakov/Data/STM32/STM32Cube/Repository/STM32Cube_FW_F4_V1.10.0/Drivers/STM32F4xx_HAL_Driver/Src/stm32f4xx_hal_wwdg.c **** @verbatim   
 267:/home/vadimstupakov/Data/STM32/STM32Cube/Repository/STM32Cube_FW_F4_V1.10.0/Drivers/STM32F4xx_HAL_Driver/Src/stm32f4xx_hal_wwdg.c ****   ==============================================================================
 268:/home/vadimstupakov/Data/STM32/STM32Cube/Repository/STM32Cube_FW_F4_V1.10.0/Drivers/STM32F4xx_HAL_Driver/Src/stm32f4xx_hal_wwdg.c ****                        ##### IO operation functions #####
 269:/home/vadimstupakov/Data/STM32/STM32Cube/Repository/STM32Cube_FW_F4_V1.10.0/Drivers/STM32F4xx_HAL_Driver/Src/stm32f4xx_hal_wwdg.c ****   ==============================================================================  
 270:/home/vadimstupakov/Data/STM32/STM32Cube/Repository/STM32Cube_FW_F4_V1.10.0/Drivers/STM32F4xx_HAL_Driver/Src/stm32f4xx_hal_wwdg.c ****   [..]  
 271:/home/vadimstupakov/Data/STM32/STM32Cube/Repository/STM32Cube_FW_F4_V1.10.0/Drivers/STM32F4xx_HAL_Driver/Src/stm32f4xx_hal_wwdg.c ****     This section provides functions allowing to:
 272:/home/vadimstupakov/Data/STM32/STM32Cube/Repository/STM32Cube_FW_F4_V1.10.0/Drivers/STM32F4xx_HAL_Driver/Src/stm32f4xx_hal_wwdg.c ****     (+) Start the WWDG.
 273:/home/vadimstupakov/Data/STM32/STM32Cube/Repository/STM32Cube_FW_F4_V1.10.0/Drivers/STM32F4xx_HAL_Driver/Src/stm32f4xx_hal_wwdg.c ****     (+) Refresh the WWDG.
 274:/home/vadimstupakov/Data/STM32/STM32Cube/Repository/STM32Cube_FW_F4_V1.10.0/Drivers/STM32F4xx_HAL_Driver/Src/stm32f4xx_hal_wwdg.c ****     (+) Handle WWDG interrupt request. 
 275:/home/vadimstupakov/Data/STM32/STM32Cube/Repository/STM32Cube_FW_F4_V1.10.0/Drivers/STM32F4xx_HAL_Driver/Src/stm32f4xx_hal_wwdg.c **** 
 276:/home/vadimstupakov/Data/STM32/STM32Cube/Repository/STM32Cube_FW_F4_V1.10.0/Drivers/STM32F4xx_HAL_Driver/Src/stm32f4xx_hal_wwdg.c **** @endverbatim
 277:/home/vadimstupakov/Data/STM32/STM32Cube/Repository/STM32Cube_FW_F4_V1.10.0/Drivers/STM32F4xx_HAL_Driver/Src/stm32f4xx_hal_wwdg.c ****   * @{
 278:/home/vadimstupakov/Data/STM32/STM32Cube/Repository/STM32Cube_FW_F4_V1.10.0/Drivers/STM32F4xx_HAL_Driver/Src/stm32f4xx_hal_wwdg.c ****   */
 279:/home/vadimstupakov/Data/STM32/STM32Cube/Repository/STM32Cube_FW_F4_V1.10.0/Drivers/STM32F4xx_HAL_Driver/Src/stm32f4xx_hal_wwdg.c **** 
 280:/home/vadimstupakov/Data/STM32/STM32Cube/Repository/STM32Cube_FW_F4_V1.10.0/Drivers/STM32F4xx_HAL_Driver/Src/stm32f4xx_hal_wwdg.c **** /**
 281:/home/vadimstupakov/Data/STM32/STM32Cube/Repository/STM32Cube_FW_F4_V1.10.0/Drivers/STM32F4xx_HAL_Driver/Src/stm32f4xx_hal_wwdg.c ****   * @brief  Starts the WWDG.
 282:/home/vadimstupakov/Data/STM32/STM32Cube/Repository/STM32Cube_FW_F4_V1.10.0/Drivers/STM32F4xx_HAL_Driver/Src/stm32f4xx_hal_wwdg.c ****   * @param  hwwdg: pointer to a WWDG_HandleTypeDef structure that contains
 283:/home/vadimstupakov/Data/STM32/STM32Cube/Repository/STM32Cube_FW_F4_V1.10.0/Drivers/STM32F4xx_HAL_Driver/Src/stm32f4xx_hal_wwdg.c ****   *              the configuration information for the specified WWDG module.
 284:/home/vadimstupakov/Data/STM32/STM32Cube/Repository/STM32Cube_FW_F4_V1.10.0/Drivers/STM32F4xx_HAL_Driver/Src/stm32f4xx_hal_wwdg.c ****   * @retval HAL status
 285:/home/vadimstupakov/Data/STM32/STM32Cube/Repository/STM32Cube_FW_F4_V1.10.0/Drivers/STM32F4xx_HAL_Driver/Src/stm32f4xx_hal_wwdg.c ****   */
 286:/home/vadimstupakov/Data/STM32/STM32Cube/Repository/STM32Cube_FW_F4_V1.10.0/Drivers/STM32F4xx_HAL_Driver/Src/stm32f4xx_hal_wwdg.c **** HAL_StatusTypeDef HAL_WWDG_Start(WWDG_HandleTypeDef *hwwdg)
 287:/home/vadimstupakov/Data/STM32/STM32Cube/Repository/STM32Cube_FW_F4_V1.10.0/Drivers/STM32F4xx_HAL_Driver/Src/stm32f4xx_hal_wwdg.c **** {
 282              		.loc 1 287 0
 283              		.cfi_startproc
 284              		@ args = 0, pretend = 0, frame = 8
 285              		@ frame_needed = 1, uses_anonymous_args = 0
 286              		@ link register save eliminated.
 287 0000 80B4     		push	{r7}
 288              	.LCFI22:
 289              		.cfi_def_cfa_offset 4
 290              		.cfi_offset 7, -4
 291 0002 83B0     		sub	sp, sp, #12
 292              	.LCFI23:
ARM GAS  /tmp/cc70W8W1.s 			page 11


 293              		.cfi_def_cfa_offset 16
 294 0004 00AF     		add	r7, sp, #0
 295              	.LCFI24:
 296              		.cfi_def_cfa_register 7
 297 0006 7860     		str	r0, [r7, #4]
 288:/home/vadimstupakov/Data/STM32/STM32Cube/Repository/STM32Cube_FW_F4_V1.10.0/Drivers/STM32F4xx_HAL_Driver/Src/stm32f4xx_hal_wwdg.c ****   /* Process Locked */
 289:/home/vadimstupakov/Data/STM32/STM32Cube/Repository/STM32Cube_FW_F4_V1.10.0/Drivers/STM32F4xx_HAL_Driver/Src/stm32f4xx_hal_wwdg.c ****   __HAL_LOCK(hwwdg); 
 298              		.loc 1 289 0
 299 0008 7B68     		ldr	r3, [r7, #4]
 300 000a 1B7C     		ldrb	r3, [r3, #16]	@ zero_extendqisi2
 301 000c 012B     		cmp	r3, #1
 302 000e 01D1     		bne	.L11
 303              		.loc 1 289 0 is_stmt 0 discriminator 1
 304 0010 0223     		movs	r3, #2
 305 0012 14E0     		b	.L12
 306              	.L11:
 307              		.loc 1 289 0 discriminator 2
 308 0014 7B68     		ldr	r3, [r7, #4]
 309 0016 0122     		movs	r2, #1
 310 0018 1A74     		strb	r2, [r3, #16]
 290:/home/vadimstupakov/Data/STM32/STM32Cube/Repository/STM32Cube_FW_F4_V1.10.0/Drivers/STM32F4xx_HAL_Driver/Src/stm32f4xx_hal_wwdg.c ****   
 291:/home/vadimstupakov/Data/STM32/STM32Cube/Repository/STM32Cube_FW_F4_V1.10.0/Drivers/STM32F4xx_HAL_Driver/Src/stm32f4xx_hal_wwdg.c ****   /* Change WWDG peripheral state */  
 292:/home/vadimstupakov/Data/STM32/STM32Cube/Repository/STM32Cube_FW_F4_V1.10.0/Drivers/STM32F4xx_HAL_Driver/Src/stm32f4xx_hal_wwdg.c ****   hwwdg->State = HAL_WWDG_STATE_BUSY;
 311              		.loc 1 292 0 is_stmt 1 discriminator 2
 312 001a 7B68     		ldr	r3, [r7, #4]
 313 001c 0222     		movs	r2, #2
 314 001e 5A74     		strb	r2, [r3, #17]
 293:/home/vadimstupakov/Data/STM32/STM32Cube/Repository/STM32Cube_FW_F4_V1.10.0/Drivers/STM32F4xx_HAL_Driver/Src/stm32f4xx_hal_wwdg.c **** 
 294:/home/vadimstupakov/Data/STM32/STM32Cube/Repository/STM32Cube_FW_F4_V1.10.0/Drivers/STM32F4xx_HAL_Driver/Src/stm32f4xx_hal_wwdg.c ****   /* Enable the peripheral */
 295:/home/vadimstupakov/Data/STM32/STM32Cube/Repository/STM32Cube_FW_F4_V1.10.0/Drivers/STM32F4xx_HAL_Driver/Src/stm32f4xx_hal_wwdg.c ****   __HAL_WWDG_ENABLE(hwwdg);  
 315              		.loc 1 295 0 discriminator 2
 316 0020 7B68     		ldr	r3, [r7, #4]
 317 0022 1B68     		ldr	r3, [r3]
 318 0024 7A68     		ldr	r2, [r7, #4]
 319 0026 1268     		ldr	r2, [r2]
 320 0028 1268     		ldr	r2, [r2]
 321 002a 42F08002 		orr	r2, r2, #128
 322 002e 1A60     		str	r2, [r3]
 296:/home/vadimstupakov/Data/STM32/STM32Cube/Repository/STM32Cube_FW_F4_V1.10.0/Drivers/STM32F4xx_HAL_Driver/Src/stm32f4xx_hal_wwdg.c ****   
 297:/home/vadimstupakov/Data/STM32/STM32Cube/Repository/STM32Cube_FW_F4_V1.10.0/Drivers/STM32F4xx_HAL_Driver/Src/stm32f4xx_hal_wwdg.c ****   /* Change WWDG peripheral state */    
 298:/home/vadimstupakov/Data/STM32/STM32Cube/Repository/STM32Cube_FW_F4_V1.10.0/Drivers/STM32F4xx_HAL_Driver/Src/stm32f4xx_hal_wwdg.c ****   hwwdg->State = HAL_WWDG_STATE_READY; 
 323              		.loc 1 298 0 discriminator 2
 324 0030 7B68     		ldr	r3, [r7, #4]
 325 0032 0122     		movs	r2, #1
 326 0034 5A74     		strb	r2, [r3, #17]
 299:/home/vadimstupakov/Data/STM32/STM32Cube/Repository/STM32Cube_FW_F4_V1.10.0/Drivers/STM32F4xx_HAL_Driver/Src/stm32f4xx_hal_wwdg.c ****   
 300:/home/vadimstupakov/Data/STM32/STM32Cube/Repository/STM32Cube_FW_F4_V1.10.0/Drivers/STM32F4xx_HAL_Driver/Src/stm32f4xx_hal_wwdg.c ****   /* Process Unlocked */
 301:/home/vadimstupakov/Data/STM32/STM32Cube/Repository/STM32Cube_FW_F4_V1.10.0/Drivers/STM32F4xx_HAL_Driver/Src/stm32f4xx_hal_wwdg.c ****   __HAL_UNLOCK(hwwdg);
 327              		.loc 1 301 0 discriminator 2
 328 0036 7B68     		ldr	r3, [r7, #4]
 329 0038 0022     		movs	r2, #0
 330 003a 1A74     		strb	r2, [r3, #16]
 302:/home/vadimstupakov/Data/STM32/STM32Cube/Repository/STM32Cube_FW_F4_V1.10.0/Drivers/STM32F4xx_HAL_Driver/Src/stm32f4xx_hal_wwdg.c ****   
 303:/home/vadimstupakov/Data/STM32/STM32Cube/Repository/STM32Cube_FW_F4_V1.10.0/Drivers/STM32F4xx_HAL_Driver/Src/stm32f4xx_hal_wwdg.c ****   /* Return function status */
 304:/home/vadimstupakov/Data/STM32/STM32Cube/Repository/STM32Cube_FW_F4_V1.10.0/Drivers/STM32F4xx_HAL_Driver/Src/stm32f4xx_hal_wwdg.c ****   return HAL_OK;
 331              		.loc 1 304 0 discriminator 2
 332 003c 0023     		movs	r3, #0
ARM GAS  /tmp/cc70W8W1.s 			page 12


 333              	.L12:
 305:/home/vadimstupakov/Data/STM32/STM32Cube/Repository/STM32Cube_FW_F4_V1.10.0/Drivers/STM32F4xx_HAL_Driver/Src/stm32f4xx_hal_wwdg.c **** }
 334              		.loc 1 305 0
 335 003e 1846     		mov	r0, r3
 336 0040 0C37     		adds	r7, r7, #12
 337              	.LCFI25:
 338              		.cfi_def_cfa_offset 4
 339 0042 BD46     		mov	sp, r7
 340              	.LCFI26:
 341              		.cfi_def_cfa_register 13
 342              		@ sp needed
 343 0044 5DF8047B 		ldr	r7, [sp], #4
 344              	.LCFI27:
 345              		.cfi_restore 7
 346              		.cfi_def_cfa_offset 0
 347 0048 7047     		bx	lr
 348              		.cfi_endproc
 349              	.LFE129:
 351 004a 00BF     		.section	.text.HAL_WWDG_Start_IT,"ax",%progbits
 352              		.align	2
 353              		.global	HAL_WWDG_Start_IT
 354              		.thumb
 355              		.thumb_func
 357              	HAL_WWDG_Start_IT:
 358              	.LFB130:
 306:/home/vadimstupakov/Data/STM32/STM32Cube/Repository/STM32Cube_FW_F4_V1.10.0/Drivers/STM32F4xx_HAL_Driver/Src/stm32f4xx_hal_wwdg.c **** 
 307:/home/vadimstupakov/Data/STM32/STM32Cube/Repository/STM32Cube_FW_F4_V1.10.0/Drivers/STM32F4xx_HAL_Driver/Src/stm32f4xx_hal_wwdg.c **** /**
 308:/home/vadimstupakov/Data/STM32/STM32Cube/Repository/STM32Cube_FW_F4_V1.10.0/Drivers/STM32F4xx_HAL_Driver/Src/stm32f4xx_hal_wwdg.c ****   * @brief  Starts the WWDG with interrupt enabled.
 309:/home/vadimstupakov/Data/STM32/STM32Cube/Repository/STM32Cube_FW_F4_V1.10.0/Drivers/STM32F4xx_HAL_Driver/Src/stm32f4xx_hal_wwdg.c ****   * @param  hwwdg: pointer to a WWDG_HandleTypeDef structure that contains
 310:/home/vadimstupakov/Data/STM32/STM32Cube/Repository/STM32Cube_FW_F4_V1.10.0/Drivers/STM32F4xx_HAL_Driver/Src/stm32f4xx_hal_wwdg.c ****   *              the configuration information for the specified WWDG module.
 311:/home/vadimstupakov/Data/STM32/STM32Cube/Repository/STM32Cube_FW_F4_V1.10.0/Drivers/STM32F4xx_HAL_Driver/Src/stm32f4xx_hal_wwdg.c ****   * @retval HAL status
 312:/home/vadimstupakov/Data/STM32/STM32Cube/Repository/STM32Cube_FW_F4_V1.10.0/Drivers/STM32F4xx_HAL_Driver/Src/stm32f4xx_hal_wwdg.c ****   */
 313:/home/vadimstupakov/Data/STM32/STM32Cube/Repository/STM32Cube_FW_F4_V1.10.0/Drivers/STM32F4xx_HAL_Driver/Src/stm32f4xx_hal_wwdg.c **** HAL_StatusTypeDef HAL_WWDG_Start_IT(WWDG_HandleTypeDef *hwwdg)
 314:/home/vadimstupakov/Data/STM32/STM32Cube/Repository/STM32Cube_FW_F4_V1.10.0/Drivers/STM32F4xx_HAL_Driver/Src/stm32f4xx_hal_wwdg.c **** {
 359              		.loc 1 314 0
 360              		.cfi_startproc
 361              		@ args = 0, pretend = 0, frame = 8
 362              		@ frame_needed = 1, uses_anonymous_args = 0
 363              		@ link register save eliminated.
 364 0000 80B4     		push	{r7}
 365              	.LCFI28:
 366              		.cfi_def_cfa_offset 4
 367              		.cfi_offset 7, -4
 368 0002 83B0     		sub	sp, sp, #12
 369              	.LCFI29:
 370              		.cfi_def_cfa_offset 16
 371 0004 00AF     		add	r7, sp, #0
 372              	.LCFI30:
 373              		.cfi_def_cfa_register 7
 374 0006 7860     		str	r0, [r7, #4]
 315:/home/vadimstupakov/Data/STM32/STM32Cube/Repository/STM32Cube_FW_F4_V1.10.0/Drivers/STM32F4xx_HAL_Driver/Src/stm32f4xx_hal_wwdg.c ****   /* Process Locked */
 316:/home/vadimstupakov/Data/STM32/STM32Cube/Repository/STM32Cube_FW_F4_V1.10.0/Drivers/STM32F4xx_HAL_Driver/Src/stm32f4xx_hal_wwdg.c ****   __HAL_LOCK(hwwdg); 
 375              		.loc 1 316 0
 376 0008 7B68     		ldr	r3, [r7, #4]
 377 000a 1B7C     		ldrb	r3, [r3, #16]	@ zero_extendqisi2
 378 000c 012B     		cmp	r3, #1
 379 000e 01D1     		bne	.L14
ARM GAS  /tmp/cc70W8W1.s 			page 13


 380              		.loc 1 316 0 is_stmt 0 discriminator 1
 381 0010 0223     		movs	r3, #2
 382 0012 16E0     		b	.L15
 383              	.L14:
 384              		.loc 1 316 0 discriminator 2
 385 0014 7B68     		ldr	r3, [r7, #4]
 386 0016 0122     		movs	r2, #1
 387 0018 1A74     		strb	r2, [r3, #16]
 317:/home/vadimstupakov/Data/STM32/STM32Cube/Repository/STM32Cube_FW_F4_V1.10.0/Drivers/STM32F4xx_HAL_Driver/Src/stm32f4xx_hal_wwdg.c **** 
 318:/home/vadimstupakov/Data/STM32/STM32Cube/Repository/STM32Cube_FW_F4_V1.10.0/Drivers/STM32F4xx_HAL_Driver/Src/stm32f4xx_hal_wwdg.c ****   /* Change WWDG peripheral state */  
 319:/home/vadimstupakov/Data/STM32/STM32Cube/Repository/STM32Cube_FW_F4_V1.10.0/Drivers/STM32F4xx_HAL_Driver/Src/stm32f4xx_hal_wwdg.c ****   hwwdg->State = HAL_WWDG_STATE_BUSY;
 388              		.loc 1 319 0 is_stmt 1 discriminator 2
 389 001a 7B68     		ldr	r3, [r7, #4]
 390 001c 0222     		movs	r2, #2
 391 001e 5A74     		strb	r2, [r3, #17]
 320:/home/vadimstupakov/Data/STM32/STM32Cube/Repository/STM32Cube_FW_F4_V1.10.0/Drivers/STM32F4xx_HAL_Driver/Src/stm32f4xx_hal_wwdg.c **** 
 321:/home/vadimstupakov/Data/STM32/STM32Cube/Repository/STM32Cube_FW_F4_V1.10.0/Drivers/STM32F4xx_HAL_Driver/Src/stm32f4xx_hal_wwdg.c ****   /* Enable the Early Wakeup Interrupt */ 
 322:/home/vadimstupakov/Data/STM32/STM32Cube/Repository/STM32Cube_FW_F4_V1.10.0/Drivers/STM32F4xx_HAL_Driver/Src/stm32f4xx_hal_wwdg.c ****   __HAL_WWDG_ENABLE_IT(hwwdg, WWDG_IT_EWI);
 392              		.loc 1 322 0 discriminator 2
 393 0020 7B68     		ldr	r3, [r7, #4]
 394 0022 1B68     		ldr	r3, [r3]
 395 0024 7A68     		ldr	r2, [r7, #4]
 396 0026 1268     		ldr	r2, [r2]
 397 0028 5268     		ldr	r2, [r2, #4]
 398 002a 42F40072 		orr	r2, r2, #512
 399 002e 5A60     		str	r2, [r3, #4]
 323:/home/vadimstupakov/Data/STM32/STM32Cube/Repository/STM32Cube_FW_F4_V1.10.0/Drivers/STM32F4xx_HAL_Driver/Src/stm32f4xx_hal_wwdg.c **** 
 324:/home/vadimstupakov/Data/STM32/STM32Cube/Repository/STM32Cube_FW_F4_V1.10.0/Drivers/STM32F4xx_HAL_Driver/Src/stm32f4xx_hal_wwdg.c ****   /* Enable the peripheral */
 325:/home/vadimstupakov/Data/STM32/STM32Cube/Repository/STM32Cube_FW_F4_V1.10.0/Drivers/STM32F4xx_HAL_Driver/Src/stm32f4xx_hal_wwdg.c ****   __HAL_WWDG_ENABLE(hwwdg);  
 400              		.loc 1 325 0 discriminator 2
 401 0030 7B68     		ldr	r3, [r7, #4]
 402 0032 1B68     		ldr	r3, [r3]
 403 0034 7A68     		ldr	r2, [r7, #4]
 404 0036 1268     		ldr	r2, [r2]
 405 0038 1268     		ldr	r2, [r2]
 406 003a 42F08002 		orr	r2, r2, #128
 407 003e 1A60     		str	r2, [r3]
 326:/home/vadimstupakov/Data/STM32/STM32Cube/Repository/STM32Cube_FW_F4_V1.10.0/Drivers/STM32F4xx_HAL_Driver/Src/stm32f4xx_hal_wwdg.c **** 
 327:/home/vadimstupakov/Data/STM32/STM32Cube/Repository/STM32Cube_FW_F4_V1.10.0/Drivers/STM32F4xx_HAL_Driver/Src/stm32f4xx_hal_wwdg.c ****   /* Return function status */
 328:/home/vadimstupakov/Data/STM32/STM32Cube/Repository/STM32Cube_FW_F4_V1.10.0/Drivers/STM32F4xx_HAL_Driver/Src/stm32f4xx_hal_wwdg.c ****   return HAL_OK;
 408              		.loc 1 328 0 discriminator 2
 409 0040 0023     		movs	r3, #0
 410              	.L15:
 329:/home/vadimstupakov/Data/STM32/STM32Cube/Repository/STM32Cube_FW_F4_V1.10.0/Drivers/STM32F4xx_HAL_Driver/Src/stm32f4xx_hal_wwdg.c **** }
 411              		.loc 1 329 0
 412 0042 1846     		mov	r0, r3
 413 0044 0C37     		adds	r7, r7, #12
 414              	.LCFI31:
 415              		.cfi_def_cfa_offset 4
 416 0046 BD46     		mov	sp, r7
 417              	.LCFI32:
 418              		.cfi_def_cfa_register 13
 419              		@ sp needed
 420 0048 5DF8047B 		ldr	r7, [sp], #4
 421              	.LCFI33:
 422              		.cfi_restore 7
 423              		.cfi_def_cfa_offset 0
ARM GAS  /tmp/cc70W8W1.s 			page 14


 424 004c 7047     		bx	lr
 425              		.cfi_endproc
 426              	.LFE130:
 428 004e 00BF     		.section	.text.HAL_WWDG_Refresh,"ax",%progbits
 429              		.align	2
 430              		.global	HAL_WWDG_Refresh
 431              		.thumb
 432              		.thumb_func
 434              	HAL_WWDG_Refresh:
 435              	.LFB131:
 330:/home/vadimstupakov/Data/STM32/STM32Cube/Repository/STM32Cube_FW_F4_V1.10.0/Drivers/STM32F4xx_HAL_Driver/Src/stm32f4xx_hal_wwdg.c **** 
 331:/home/vadimstupakov/Data/STM32/STM32Cube/Repository/STM32Cube_FW_F4_V1.10.0/Drivers/STM32F4xx_HAL_Driver/Src/stm32f4xx_hal_wwdg.c **** /**
 332:/home/vadimstupakov/Data/STM32/STM32Cube/Repository/STM32Cube_FW_F4_V1.10.0/Drivers/STM32F4xx_HAL_Driver/Src/stm32f4xx_hal_wwdg.c ****   * @brief  Refreshes the WWDG.
 333:/home/vadimstupakov/Data/STM32/STM32Cube/Repository/STM32Cube_FW_F4_V1.10.0/Drivers/STM32F4xx_HAL_Driver/Src/stm32f4xx_hal_wwdg.c ****   * @param  hwwdg: pointer to a WWDG_HandleTypeDef structure that contains
 334:/home/vadimstupakov/Data/STM32/STM32Cube/Repository/STM32Cube_FW_F4_V1.10.0/Drivers/STM32F4xx_HAL_Driver/Src/stm32f4xx_hal_wwdg.c ****   *              the configuration information for the specified WWDG module.
 335:/home/vadimstupakov/Data/STM32/STM32Cube/Repository/STM32Cube_FW_F4_V1.10.0/Drivers/STM32F4xx_HAL_Driver/Src/stm32f4xx_hal_wwdg.c ****   * @param  Counter: value of counter to put in WWDG counter
 336:/home/vadimstupakov/Data/STM32/STM32Cube/Repository/STM32Cube_FW_F4_V1.10.0/Drivers/STM32F4xx_HAL_Driver/Src/stm32f4xx_hal_wwdg.c ****   * @retval HAL status
 337:/home/vadimstupakov/Data/STM32/STM32Cube/Repository/STM32Cube_FW_F4_V1.10.0/Drivers/STM32F4xx_HAL_Driver/Src/stm32f4xx_hal_wwdg.c ****   */
 338:/home/vadimstupakov/Data/STM32/STM32Cube/Repository/STM32Cube_FW_F4_V1.10.0/Drivers/STM32F4xx_HAL_Driver/Src/stm32f4xx_hal_wwdg.c **** HAL_StatusTypeDef HAL_WWDG_Refresh(WWDG_HandleTypeDef *hwwdg, uint32_t Counter)
 339:/home/vadimstupakov/Data/STM32/STM32Cube/Repository/STM32Cube_FW_F4_V1.10.0/Drivers/STM32F4xx_HAL_Driver/Src/stm32f4xx_hal_wwdg.c **** {
 436              		.loc 1 339 0
 437              		.cfi_startproc
 438              		@ args = 0, pretend = 0, frame = 8
 439              		@ frame_needed = 1, uses_anonymous_args = 0
 440              		@ link register save eliminated.
 441 0000 80B4     		push	{r7}
 442              	.LCFI34:
 443              		.cfi_def_cfa_offset 4
 444              		.cfi_offset 7, -4
 445 0002 83B0     		sub	sp, sp, #12
 446              	.LCFI35:
 447              		.cfi_def_cfa_offset 16
 448 0004 00AF     		add	r7, sp, #0
 449              	.LCFI36:
 450              		.cfi_def_cfa_register 7
 451 0006 7860     		str	r0, [r7, #4]
 452 0008 3960     		str	r1, [r7]
 340:/home/vadimstupakov/Data/STM32/STM32Cube/Repository/STM32Cube_FW_F4_V1.10.0/Drivers/STM32F4xx_HAL_Driver/Src/stm32f4xx_hal_wwdg.c ****   /* Process Locked */
 341:/home/vadimstupakov/Data/STM32/STM32Cube/Repository/STM32Cube_FW_F4_V1.10.0/Drivers/STM32F4xx_HAL_Driver/Src/stm32f4xx_hal_wwdg.c ****   __HAL_LOCK(hwwdg); 
 453              		.loc 1 341 0
 454 000a 7B68     		ldr	r3, [r7, #4]
 455 000c 1B7C     		ldrb	r3, [r3, #16]	@ zero_extendqisi2
 456 000e 012B     		cmp	r3, #1
 457 0010 01D1     		bne	.L17
 458              		.loc 1 341 0 is_stmt 0 discriminator 1
 459 0012 0223     		movs	r3, #2
 460 0014 16E0     		b	.L18
 461              	.L17:
 462              		.loc 1 341 0 discriminator 2
 463 0016 7B68     		ldr	r3, [r7, #4]
 464 0018 0122     		movs	r2, #1
 465 001a 1A74     		strb	r2, [r3, #16]
 342:/home/vadimstupakov/Data/STM32/STM32Cube/Repository/STM32Cube_FW_F4_V1.10.0/Drivers/STM32F4xx_HAL_Driver/Src/stm32f4xx_hal_wwdg.c ****   
 343:/home/vadimstupakov/Data/STM32/STM32Cube/Repository/STM32Cube_FW_F4_V1.10.0/Drivers/STM32F4xx_HAL_Driver/Src/stm32f4xx_hal_wwdg.c ****   /* Change WWDG peripheral state */  
 344:/home/vadimstupakov/Data/STM32/STM32Cube/Repository/STM32Cube_FW_F4_V1.10.0/Drivers/STM32F4xx_HAL_Driver/Src/stm32f4xx_hal_wwdg.c ****   hwwdg->State = HAL_WWDG_STATE_BUSY;
 466              		.loc 1 344 0 is_stmt 1 discriminator 2
 467 001c 7B68     		ldr	r3, [r7, #4]
ARM GAS  /tmp/cc70W8W1.s 			page 15


 468 001e 0222     		movs	r2, #2
 469 0020 5A74     		strb	r2, [r3, #17]
 345:/home/vadimstupakov/Data/STM32/STM32Cube/Repository/STM32Cube_FW_F4_V1.10.0/Drivers/STM32F4xx_HAL_Driver/Src/stm32f4xx_hal_wwdg.c ****   
 346:/home/vadimstupakov/Data/STM32/STM32Cube/Repository/STM32Cube_FW_F4_V1.10.0/Drivers/STM32F4xx_HAL_Driver/Src/stm32f4xx_hal_wwdg.c ****   /* Check the parameters */
 347:/home/vadimstupakov/Data/STM32/STM32Cube/Repository/STM32Cube_FW_F4_V1.10.0/Drivers/STM32F4xx_HAL_Driver/Src/stm32f4xx_hal_wwdg.c ****   assert_param(IS_WWDG_COUNTER(Counter));
 348:/home/vadimstupakov/Data/STM32/STM32Cube/Repository/STM32Cube_FW_F4_V1.10.0/Drivers/STM32F4xx_HAL_Driver/Src/stm32f4xx_hal_wwdg.c ****   
 349:/home/vadimstupakov/Data/STM32/STM32Cube/Repository/STM32Cube_FW_F4_V1.10.0/Drivers/STM32F4xx_HAL_Driver/Src/stm32f4xx_hal_wwdg.c ****   /* Write to WWDG CR the WWDG Counter value to refresh with */
 350:/home/vadimstupakov/Data/STM32/STM32Cube/Repository/STM32Cube_FW_F4_V1.10.0/Drivers/STM32F4xx_HAL_Driver/Src/stm32f4xx_hal_wwdg.c ****   MODIFY_REG(hwwdg->Instance->CR, (uint32_t)WWDG_CR_T, Counter);
 470              		.loc 1 350 0 discriminator 2
 471 0022 7B68     		ldr	r3, [r7, #4]
 472 0024 1B68     		ldr	r3, [r3]
 473 0026 7A68     		ldr	r2, [r7, #4]
 474 0028 1268     		ldr	r2, [r2]
 475 002a 1268     		ldr	r2, [r2]
 476 002c 22F07F01 		bic	r1, r2, #127
 477 0030 3A68     		ldr	r2, [r7]
 478 0032 0A43     		orrs	r2, r2, r1
 479 0034 1A60     		str	r2, [r3]
 351:/home/vadimstupakov/Data/STM32/STM32Cube/Repository/STM32Cube_FW_F4_V1.10.0/Drivers/STM32F4xx_HAL_Driver/Src/stm32f4xx_hal_wwdg.c ****   
 352:/home/vadimstupakov/Data/STM32/STM32Cube/Repository/STM32Cube_FW_F4_V1.10.0/Drivers/STM32F4xx_HAL_Driver/Src/stm32f4xx_hal_wwdg.c ****   /* Change WWDG peripheral state */    
 353:/home/vadimstupakov/Data/STM32/STM32Cube/Repository/STM32Cube_FW_F4_V1.10.0/Drivers/STM32F4xx_HAL_Driver/Src/stm32f4xx_hal_wwdg.c ****   hwwdg->State = HAL_WWDG_STATE_READY; 
 480              		.loc 1 353 0 discriminator 2
 481 0036 7B68     		ldr	r3, [r7, #4]
 482 0038 0122     		movs	r2, #1
 483 003a 5A74     		strb	r2, [r3, #17]
 354:/home/vadimstupakov/Data/STM32/STM32Cube/Repository/STM32Cube_FW_F4_V1.10.0/Drivers/STM32F4xx_HAL_Driver/Src/stm32f4xx_hal_wwdg.c ****   
 355:/home/vadimstupakov/Data/STM32/STM32Cube/Repository/STM32Cube_FW_F4_V1.10.0/Drivers/STM32F4xx_HAL_Driver/Src/stm32f4xx_hal_wwdg.c ****   /* Process Unlocked */
 356:/home/vadimstupakov/Data/STM32/STM32Cube/Repository/STM32Cube_FW_F4_V1.10.0/Drivers/STM32F4xx_HAL_Driver/Src/stm32f4xx_hal_wwdg.c ****   __HAL_UNLOCK(hwwdg);
 484              		.loc 1 356 0 discriminator 2
 485 003c 7B68     		ldr	r3, [r7, #4]
 486 003e 0022     		movs	r2, #0
 487 0040 1A74     		strb	r2, [r3, #16]
 357:/home/vadimstupakov/Data/STM32/STM32Cube/Repository/STM32Cube_FW_F4_V1.10.0/Drivers/STM32F4xx_HAL_Driver/Src/stm32f4xx_hal_wwdg.c ****   
 358:/home/vadimstupakov/Data/STM32/STM32Cube/Repository/STM32Cube_FW_F4_V1.10.0/Drivers/STM32F4xx_HAL_Driver/Src/stm32f4xx_hal_wwdg.c ****   /* Return function status */
 359:/home/vadimstupakov/Data/STM32/STM32Cube/Repository/STM32Cube_FW_F4_V1.10.0/Drivers/STM32F4xx_HAL_Driver/Src/stm32f4xx_hal_wwdg.c ****   return HAL_OK;
 488              		.loc 1 359 0 discriminator 2
 489 0042 0023     		movs	r3, #0
 490              	.L18:
 360:/home/vadimstupakov/Data/STM32/STM32Cube/Repository/STM32Cube_FW_F4_V1.10.0/Drivers/STM32F4xx_HAL_Driver/Src/stm32f4xx_hal_wwdg.c **** }
 491              		.loc 1 360 0
 492 0044 1846     		mov	r0, r3
 493 0046 0C37     		adds	r7, r7, #12
 494              	.LCFI37:
 495              		.cfi_def_cfa_offset 4
 496 0048 BD46     		mov	sp, r7
 497              	.LCFI38:
 498              		.cfi_def_cfa_register 13
 499              		@ sp needed
 500 004a 5DF8047B 		ldr	r7, [sp], #4
 501              	.LCFI39:
 502              		.cfi_restore 7
 503              		.cfi_def_cfa_offset 0
 504 004e 7047     		bx	lr
 505              		.cfi_endproc
 506              	.LFE131:
 508              		.section	.text.HAL_WWDG_IRQHandler,"ax",%progbits
 509              		.align	2
ARM GAS  /tmp/cc70W8W1.s 			page 16


 510              		.global	HAL_WWDG_IRQHandler
 511              		.thumb
 512              		.thumb_func
 514              	HAL_WWDG_IRQHandler:
 515              	.LFB132:
 361:/home/vadimstupakov/Data/STM32/STM32Cube/Repository/STM32Cube_FW_F4_V1.10.0/Drivers/STM32F4xx_HAL_Driver/Src/stm32f4xx_hal_wwdg.c **** 
 362:/home/vadimstupakov/Data/STM32/STM32Cube/Repository/STM32Cube_FW_F4_V1.10.0/Drivers/STM32F4xx_HAL_Driver/Src/stm32f4xx_hal_wwdg.c **** /**
 363:/home/vadimstupakov/Data/STM32/STM32Cube/Repository/STM32Cube_FW_F4_V1.10.0/Drivers/STM32F4xx_HAL_Driver/Src/stm32f4xx_hal_wwdg.c ****   * @brief  Handles WWDG interrupt request.
 364:/home/vadimstupakov/Data/STM32/STM32Cube/Repository/STM32Cube_FW_F4_V1.10.0/Drivers/STM32F4xx_HAL_Driver/Src/stm32f4xx_hal_wwdg.c ****   * @note   The Early Wakeup Interrupt (EWI) can be used if specific safety operations 
 365:/home/vadimstupakov/Data/STM32/STM32Cube/Repository/STM32Cube_FW_F4_V1.10.0/Drivers/STM32F4xx_HAL_Driver/Src/stm32f4xx_hal_wwdg.c ****   *         or data logging must be performed before the actual reset is generated. 
 366:/home/vadimstupakov/Data/STM32/STM32Cube/Repository/STM32Cube_FW_F4_V1.10.0/Drivers/STM32F4xx_HAL_Driver/Src/stm32f4xx_hal_wwdg.c ****   *         The EWI interrupt is enabled using __HAL_WWDG_ENABLE_IT() macro.
 367:/home/vadimstupakov/Data/STM32/STM32Cube/Repository/STM32Cube_FW_F4_V1.10.0/Drivers/STM32F4xx_HAL_Driver/Src/stm32f4xx_hal_wwdg.c ****   *         When the downcounter reaches the value 0x40, and EWI interrupt is 
 368:/home/vadimstupakov/Data/STM32/STM32Cube/Repository/STM32Cube_FW_F4_V1.10.0/Drivers/STM32F4xx_HAL_Driver/Src/stm32f4xx_hal_wwdg.c ****   *         generated and the corresponding Interrupt Service Routine (ISR) can 
 369:/home/vadimstupakov/Data/STM32/STM32Cube/Repository/STM32Cube_FW_F4_V1.10.0/Drivers/STM32F4xx_HAL_Driver/Src/stm32f4xx_hal_wwdg.c ****   *         be used to trigger specific actions (such as communications or data 
 370:/home/vadimstupakov/Data/STM32/STM32Cube/Repository/STM32Cube_FW_F4_V1.10.0/Drivers/STM32F4xx_HAL_Driver/Src/stm32f4xx_hal_wwdg.c ****   *         logging), before resetting the device. 
 371:/home/vadimstupakov/Data/STM32/STM32Cube/Repository/STM32Cube_FW_F4_V1.10.0/Drivers/STM32F4xx_HAL_Driver/Src/stm32f4xx_hal_wwdg.c ****   * @param  hwwdg: pointer to a WWDG_HandleTypeDef structure that contains
 372:/home/vadimstupakov/Data/STM32/STM32Cube/Repository/STM32Cube_FW_F4_V1.10.0/Drivers/STM32F4xx_HAL_Driver/Src/stm32f4xx_hal_wwdg.c ****   *              the configuration information for the specified WWDG module.
 373:/home/vadimstupakov/Data/STM32/STM32Cube/Repository/STM32Cube_FW_F4_V1.10.0/Drivers/STM32F4xx_HAL_Driver/Src/stm32f4xx_hal_wwdg.c ****   * @retval None
 374:/home/vadimstupakov/Data/STM32/STM32Cube/Repository/STM32Cube_FW_F4_V1.10.0/Drivers/STM32F4xx_HAL_Driver/Src/stm32f4xx_hal_wwdg.c ****   */
 375:/home/vadimstupakov/Data/STM32/STM32Cube/Repository/STM32Cube_FW_F4_V1.10.0/Drivers/STM32F4xx_HAL_Driver/Src/stm32f4xx_hal_wwdg.c **** void HAL_WWDG_IRQHandler(WWDG_HandleTypeDef *hwwdg)
 376:/home/vadimstupakov/Data/STM32/STM32Cube/Repository/STM32Cube_FW_F4_V1.10.0/Drivers/STM32F4xx_HAL_Driver/Src/stm32f4xx_hal_wwdg.c **** { 
 516              		.loc 1 376 0
 517              		.cfi_startproc
 518              		@ args = 0, pretend = 0, frame = 8
 519              		@ frame_needed = 1, uses_anonymous_args = 0
 520 0000 80B5     		push	{r7, lr}
 521              	.LCFI40:
 522              		.cfi_def_cfa_offset 8
 523              		.cfi_offset 7, -8
 524              		.cfi_offset 14, -4
 525 0002 82B0     		sub	sp, sp, #8
 526              	.LCFI41:
 527              		.cfi_def_cfa_offset 16
 528 0004 00AF     		add	r7, sp, #0
 529              	.LCFI42:
 530              		.cfi_def_cfa_register 7
 531 0006 7860     		str	r0, [r7, #4]
 377:/home/vadimstupakov/Data/STM32/STM32Cube/Repository/STM32Cube_FW_F4_V1.10.0/Drivers/STM32F4xx_HAL_Driver/Src/stm32f4xx_hal_wwdg.c ****   /* Check if Early Wakeup Interrupt is enable */
 378:/home/vadimstupakov/Data/STM32/STM32Cube/Repository/STM32Cube_FW_F4_V1.10.0/Drivers/STM32F4xx_HAL_Driver/Src/stm32f4xx_hal_wwdg.c ****   if(__HAL_WWDG_GET_IT_SOURCE(hwwdg, WWDG_IT_EWI) != RESET)
 532              		.loc 1 378 0
 533 0008 7B68     		ldr	r3, [r7, #4]
 534 000a 1B68     		ldr	r3, [r3]
 535 000c 5B68     		ldr	r3, [r3, #4]
 536 000e 03F40073 		and	r3, r3, #512
 537 0012 002B     		cmp	r3, #0
 538 0014 14D0     		beq	.L19
 379:/home/vadimstupakov/Data/STM32/STM32Cube/Repository/STM32Cube_FW_F4_V1.10.0/Drivers/STM32F4xx_HAL_Driver/Src/stm32f4xx_hal_wwdg.c ****   {
 380:/home/vadimstupakov/Data/STM32/STM32Cube/Repository/STM32Cube_FW_F4_V1.10.0/Drivers/STM32F4xx_HAL_Driver/Src/stm32f4xx_hal_wwdg.c ****     /* Check if WWDG Early Wakeup Interrupt occurred */
 381:/home/vadimstupakov/Data/STM32/STM32Cube/Repository/STM32Cube_FW_F4_V1.10.0/Drivers/STM32F4xx_HAL_Driver/Src/stm32f4xx_hal_wwdg.c ****     if(__HAL_WWDG_GET_FLAG(hwwdg, WWDG_FLAG_EWIF) != RESET)
 539              		.loc 1 381 0
 540 0016 7B68     		ldr	r3, [r7, #4]
 541 0018 1B68     		ldr	r3, [r3]
 542 001a 9B68     		ldr	r3, [r3, #8]
 543 001c 03F00103 		and	r3, r3, #1
 544 0020 002B     		cmp	r3, #0
 545 0022 0DD0     		beq	.L19
 382:/home/vadimstupakov/Data/STM32/STM32Cube/Repository/STM32Cube_FW_F4_V1.10.0/Drivers/STM32F4xx_HAL_Driver/Src/stm32f4xx_hal_wwdg.c ****     {
ARM GAS  /tmp/cc70W8W1.s 			page 17


 383:/home/vadimstupakov/Data/STM32/STM32Cube/Repository/STM32Cube_FW_F4_V1.10.0/Drivers/STM32F4xx_HAL_Driver/Src/stm32f4xx_hal_wwdg.c ****       /* Early Wakeup callback */ 
 384:/home/vadimstupakov/Data/STM32/STM32Cube/Repository/STM32Cube_FW_F4_V1.10.0/Drivers/STM32F4xx_HAL_Driver/Src/stm32f4xx_hal_wwdg.c ****       HAL_WWDG_WakeupCallback(hwwdg);
 546              		.loc 1 384 0
 547 0024 7868     		ldr	r0, [r7, #4]
 548 0026 FFF7FEFF 		bl	HAL_WWDG_WakeupCallback
 385:/home/vadimstupakov/Data/STM32/STM32Cube/Repository/STM32Cube_FW_F4_V1.10.0/Drivers/STM32F4xx_HAL_Driver/Src/stm32f4xx_hal_wwdg.c ****       
 386:/home/vadimstupakov/Data/STM32/STM32Cube/Repository/STM32Cube_FW_F4_V1.10.0/Drivers/STM32F4xx_HAL_Driver/Src/stm32f4xx_hal_wwdg.c ****       /* Change WWDG peripheral state */
 387:/home/vadimstupakov/Data/STM32/STM32Cube/Repository/STM32Cube_FW_F4_V1.10.0/Drivers/STM32F4xx_HAL_Driver/Src/stm32f4xx_hal_wwdg.c ****       hwwdg->State = HAL_WWDG_STATE_READY; 
 549              		.loc 1 387 0
 550 002a 7B68     		ldr	r3, [r7, #4]
 551 002c 0122     		movs	r2, #1
 552 002e 5A74     		strb	r2, [r3, #17]
 388:/home/vadimstupakov/Data/STM32/STM32Cube/Repository/STM32Cube_FW_F4_V1.10.0/Drivers/STM32F4xx_HAL_Driver/Src/stm32f4xx_hal_wwdg.c ****       
 389:/home/vadimstupakov/Data/STM32/STM32Cube/Repository/STM32Cube_FW_F4_V1.10.0/Drivers/STM32F4xx_HAL_Driver/Src/stm32f4xx_hal_wwdg.c ****       /* Clear the WWDG Early Wakeup flag */
 390:/home/vadimstupakov/Data/STM32/STM32Cube/Repository/STM32Cube_FW_F4_V1.10.0/Drivers/STM32F4xx_HAL_Driver/Src/stm32f4xx_hal_wwdg.c ****       __HAL_WWDG_CLEAR_FLAG(hwwdg, WWDG_FLAG_EWIF);
 553              		.loc 1 390 0
 554 0030 7B68     		ldr	r3, [r7, #4]
 555 0032 1B68     		ldr	r3, [r3]
 556 0034 6FF00102 		mvn	r2, #1
 557 0038 9A60     		str	r2, [r3, #8]
 391:/home/vadimstupakov/Data/STM32/STM32Cube/Repository/STM32Cube_FW_F4_V1.10.0/Drivers/STM32F4xx_HAL_Driver/Src/stm32f4xx_hal_wwdg.c ****       
 392:/home/vadimstupakov/Data/STM32/STM32Cube/Repository/STM32Cube_FW_F4_V1.10.0/Drivers/STM32F4xx_HAL_Driver/Src/stm32f4xx_hal_wwdg.c ****       /* Process Unlocked */
 393:/home/vadimstupakov/Data/STM32/STM32Cube/Repository/STM32Cube_FW_F4_V1.10.0/Drivers/STM32F4xx_HAL_Driver/Src/stm32f4xx_hal_wwdg.c ****       __HAL_UNLOCK(hwwdg);
 558              		.loc 1 393 0
 559 003a 7B68     		ldr	r3, [r7, #4]
 560 003c 0022     		movs	r2, #0
 561 003e 1A74     		strb	r2, [r3, #16]
 562              	.L19:
 394:/home/vadimstupakov/Data/STM32/STM32Cube/Repository/STM32Cube_FW_F4_V1.10.0/Drivers/STM32F4xx_HAL_Driver/Src/stm32f4xx_hal_wwdg.c ****     }
 395:/home/vadimstupakov/Data/STM32/STM32Cube/Repository/STM32Cube_FW_F4_V1.10.0/Drivers/STM32F4xx_HAL_Driver/Src/stm32f4xx_hal_wwdg.c ****   }
 396:/home/vadimstupakov/Data/STM32/STM32Cube/Repository/STM32Cube_FW_F4_V1.10.0/Drivers/STM32F4xx_HAL_Driver/Src/stm32f4xx_hal_wwdg.c **** } 
 563              		.loc 1 396 0
 564 0040 0837     		adds	r7, r7, #8
 565              	.LCFI43:
 566              		.cfi_def_cfa_offset 8
 567 0042 BD46     		mov	sp, r7
 568              	.LCFI44:
 569              		.cfi_def_cfa_register 13
 570              		@ sp needed
 571 0044 80BD     		pop	{r7, pc}
 572              		.cfi_endproc
 573              	.LFE132:
 575 0046 00BF     		.section	.text.HAL_WWDG_WakeupCallback,"ax",%progbits
 576              		.align	2
 577              		.weak	HAL_WWDG_WakeupCallback
 578              		.thumb
 579              		.thumb_func
 581              	HAL_WWDG_WakeupCallback:
 582              	.LFB133:
 397:/home/vadimstupakov/Data/STM32/STM32Cube/Repository/STM32Cube_FW_F4_V1.10.0/Drivers/STM32F4xx_HAL_Driver/Src/stm32f4xx_hal_wwdg.c **** 
 398:/home/vadimstupakov/Data/STM32/STM32Cube/Repository/STM32Cube_FW_F4_V1.10.0/Drivers/STM32F4xx_HAL_Driver/Src/stm32f4xx_hal_wwdg.c **** /**
 399:/home/vadimstupakov/Data/STM32/STM32Cube/Repository/STM32Cube_FW_F4_V1.10.0/Drivers/STM32F4xx_HAL_Driver/Src/stm32f4xx_hal_wwdg.c ****   * @brief  Early Wakeup WWDG callback.
 400:/home/vadimstupakov/Data/STM32/STM32Cube/Repository/STM32Cube_FW_F4_V1.10.0/Drivers/STM32F4xx_HAL_Driver/Src/stm32f4xx_hal_wwdg.c ****   * @param  hwwdg: pointer to a WWDG_HandleTypeDef structure that contains
 401:/home/vadimstupakov/Data/STM32/STM32Cube/Repository/STM32Cube_FW_F4_V1.10.0/Drivers/STM32F4xx_HAL_Driver/Src/stm32f4xx_hal_wwdg.c ****   *              the configuration information for the specified WWDG module.
 402:/home/vadimstupakov/Data/STM32/STM32Cube/Repository/STM32Cube_FW_F4_V1.10.0/Drivers/STM32F4xx_HAL_Driver/Src/stm32f4xx_hal_wwdg.c ****   * @retval None
 403:/home/vadimstupakov/Data/STM32/STM32Cube/Repository/STM32Cube_FW_F4_V1.10.0/Drivers/STM32F4xx_HAL_Driver/Src/stm32f4xx_hal_wwdg.c ****   */
 404:/home/vadimstupakov/Data/STM32/STM32Cube/Repository/STM32Cube_FW_F4_V1.10.0/Drivers/STM32F4xx_HAL_Driver/Src/stm32f4xx_hal_wwdg.c **** __weak void HAL_WWDG_WakeupCallback(WWDG_HandleTypeDef* hwwdg)
ARM GAS  /tmp/cc70W8W1.s 			page 18


 405:/home/vadimstupakov/Data/STM32/STM32Cube/Repository/STM32Cube_FW_F4_V1.10.0/Drivers/STM32F4xx_HAL_Driver/Src/stm32f4xx_hal_wwdg.c **** {
 583              		.loc 1 405 0
 584              		.cfi_startproc
 585              		@ args = 0, pretend = 0, frame = 8
 586              		@ frame_needed = 1, uses_anonymous_args = 0
 587              		@ link register save eliminated.
 588 0000 80B4     		push	{r7}
 589              	.LCFI45:
 590              		.cfi_def_cfa_offset 4
 591              		.cfi_offset 7, -4
 592 0002 83B0     		sub	sp, sp, #12
 593              	.LCFI46:
 594              		.cfi_def_cfa_offset 16
 595 0004 00AF     		add	r7, sp, #0
 596              	.LCFI47:
 597              		.cfi_def_cfa_register 7
 598 0006 7860     		str	r0, [r7, #4]
 406:/home/vadimstupakov/Data/STM32/STM32Cube/Repository/STM32Cube_FW_F4_V1.10.0/Drivers/STM32F4xx_HAL_Driver/Src/stm32f4xx_hal_wwdg.c ****   /* Prevent unused argument(s) compilation warning */
 407:/home/vadimstupakov/Data/STM32/STM32Cube/Repository/STM32Cube_FW_F4_V1.10.0/Drivers/STM32F4xx_HAL_Driver/Src/stm32f4xx_hal_wwdg.c ****   UNUSED(hwwdg);  
 408:/home/vadimstupakov/Data/STM32/STM32Cube/Repository/STM32Cube_FW_F4_V1.10.0/Drivers/STM32F4xx_HAL_Driver/Src/stm32f4xx_hal_wwdg.c ****   /* NOTE: This function Should not be modified, when the callback is needed,
 409:/home/vadimstupakov/Data/STM32/STM32Cube/Repository/STM32Cube_FW_F4_V1.10.0/Drivers/STM32F4xx_HAL_Driver/Src/stm32f4xx_hal_wwdg.c ****            the HAL_WWDG_WakeupCallback could be implemented in the user file
 410:/home/vadimstupakov/Data/STM32/STM32Cube/Repository/STM32Cube_FW_F4_V1.10.0/Drivers/STM32F4xx_HAL_Driver/Src/stm32f4xx_hal_wwdg.c ****    */
 411:/home/vadimstupakov/Data/STM32/STM32Cube/Repository/STM32Cube_FW_F4_V1.10.0/Drivers/STM32F4xx_HAL_Driver/Src/stm32f4xx_hal_wwdg.c **** }
 599              		.loc 1 411 0
 600 0008 0C37     		adds	r7, r7, #12
 601              	.LCFI48:
 602              		.cfi_def_cfa_offset 4
 603 000a BD46     		mov	sp, r7
 604              	.LCFI49:
 605              		.cfi_def_cfa_register 13
 606              		@ sp needed
 607 000c 5DF8047B 		ldr	r7, [sp], #4
 608              	.LCFI50:
 609              		.cfi_restore 7
 610              		.cfi_def_cfa_offset 0
 611 0010 7047     		bx	lr
 612              		.cfi_endproc
 613              	.LFE133:
 615 0012 00BF     		.section	.text.HAL_WWDG_GetState,"ax",%progbits
 616              		.align	2
 617              		.global	HAL_WWDG_GetState
 618              		.thumb
 619              		.thumb_func
 621              	HAL_WWDG_GetState:
 622              	.LFB134:
 412:/home/vadimstupakov/Data/STM32/STM32Cube/Repository/STM32Cube_FW_F4_V1.10.0/Drivers/STM32F4xx_HAL_Driver/Src/stm32f4xx_hal_wwdg.c **** 
 413:/home/vadimstupakov/Data/STM32/STM32Cube/Repository/STM32Cube_FW_F4_V1.10.0/Drivers/STM32F4xx_HAL_Driver/Src/stm32f4xx_hal_wwdg.c **** /**
 414:/home/vadimstupakov/Data/STM32/STM32Cube/Repository/STM32Cube_FW_F4_V1.10.0/Drivers/STM32F4xx_HAL_Driver/Src/stm32f4xx_hal_wwdg.c ****   * @}
 415:/home/vadimstupakov/Data/STM32/STM32Cube/Repository/STM32Cube_FW_F4_V1.10.0/Drivers/STM32F4xx_HAL_Driver/Src/stm32f4xx_hal_wwdg.c ****   */
 416:/home/vadimstupakov/Data/STM32/STM32Cube/Repository/STM32Cube_FW_F4_V1.10.0/Drivers/STM32F4xx_HAL_Driver/Src/stm32f4xx_hal_wwdg.c **** 
 417:/home/vadimstupakov/Data/STM32/STM32Cube/Repository/STM32Cube_FW_F4_V1.10.0/Drivers/STM32F4xx_HAL_Driver/Src/stm32f4xx_hal_wwdg.c **** /** @defgroup WWDG_Exported_Functions_Group3 Peripheral State functions 
 418:/home/vadimstupakov/Data/STM32/STM32Cube/Repository/STM32Cube_FW_F4_V1.10.0/Drivers/STM32F4xx_HAL_Driver/Src/stm32f4xx_hal_wwdg.c ****  *  @brief    Peripheral State functions. 
 419:/home/vadimstupakov/Data/STM32/STM32Cube/Repository/STM32Cube_FW_F4_V1.10.0/Drivers/STM32F4xx_HAL_Driver/Src/stm32f4xx_hal_wwdg.c ****  *
 420:/home/vadimstupakov/Data/STM32/STM32Cube/Repository/STM32Cube_FW_F4_V1.10.0/Drivers/STM32F4xx_HAL_Driver/Src/stm32f4xx_hal_wwdg.c **** @verbatim   
 421:/home/vadimstupakov/Data/STM32/STM32Cube/Repository/STM32Cube_FW_F4_V1.10.0/Drivers/STM32F4xx_HAL_Driver/Src/stm32f4xx_hal_wwdg.c ****   ==============================================================================
 422:/home/vadimstupakov/Data/STM32/STM32Cube/Repository/STM32Cube_FW_F4_V1.10.0/Drivers/STM32F4xx_HAL_Driver/Src/stm32f4xx_hal_wwdg.c ****                         ##### Peripheral State functions #####
 423:/home/vadimstupakov/Data/STM32/STM32Cube/Repository/STM32Cube_FW_F4_V1.10.0/Drivers/STM32F4xx_HAL_Driver/Src/stm32f4xx_hal_wwdg.c ****   ==============================================================================  
ARM GAS  /tmp/cc70W8W1.s 			page 19


 424:/home/vadimstupakov/Data/STM32/STM32Cube/Repository/STM32Cube_FW_F4_V1.10.0/Drivers/STM32F4xx_HAL_Driver/Src/stm32f4xx_hal_wwdg.c ****   [..]
 425:/home/vadimstupakov/Data/STM32/STM32Cube/Repository/STM32Cube_FW_F4_V1.10.0/Drivers/STM32F4xx_HAL_Driver/Src/stm32f4xx_hal_wwdg.c ****     This subsection permits to get in run-time the status of the peripheral 
 426:/home/vadimstupakov/Data/STM32/STM32Cube/Repository/STM32Cube_FW_F4_V1.10.0/Drivers/STM32F4xx_HAL_Driver/Src/stm32f4xx_hal_wwdg.c ****     and the data flow.
 427:/home/vadimstupakov/Data/STM32/STM32Cube/Repository/STM32Cube_FW_F4_V1.10.0/Drivers/STM32F4xx_HAL_Driver/Src/stm32f4xx_hal_wwdg.c **** 
 428:/home/vadimstupakov/Data/STM32/STM32Cube/Repository/STM32Cube_FW_F4_V1.10.0/Drivers/STM32F4xx_HAL_Driver/Src/stm32f4xx_hal_wwdg.c **** @endverbatim
 429:/home/vadimstupakov/Data/STM32/STM32Cube/Repository/STM32Cube_FW_F4_V1.10.0/Drivers/STM32F4xx_HAL_Driver/Src/stm32f4xx_hal_wwdg.c ****   * @{
 430:/home/vadimstupakov/Data/STM32/STM32Cube/Repository/STM32Cube_FW_F4_V1.10.0/Drivers/STM32F4xx_HAL_Driver/Src/stm32f4xx_hal_wwdg.c ****   */
 431:/home/vadimstupakov/Data/STM32/STM32Cube/Repository/STM32Cube_FW_F4_V1.10.0/Drivers/STM32F4xx_HAL_Driver/Src/stm32f4xx_hal_wwdg.c **** 
 432:/home/vadimstupakov/Data/STM32/STM32Cube/Repository/STM32Cube_FW_F4_V1.10.0/Drivers/STM32F4xx_HAL_Driver/Src/stm32f4xx_hal_wwdg.c **** /**
 433:/home/vadimstupakov/Data/STM32/STM32Cube/Repository/STM32Cube_FW_F4_V1.10.0/Drivers/STM32F4xx_HAL_Driver/Src/stm32f4xx_hal_wwdg.c ****   * @brief  Returns the WWDG state.
 434:/home/vadimstupakov/Data/STM32/STM32Cube/Repository/STM32Cube_FW_F4_V1.10.0/Drivers/STM32F4xx_HAL_Driver/Src/stm32f4xx_hal_wwdg.c ****   * @param  hwwdg: pointer to a WWDG_HandleTypeDef structure that contains
 435:/home/vadimstupakov/Data/STM32/STM32Cube/Repository/STM32Cube_FW_F4_V1.10.0/Drivers/STM32F4xx_HAL_Driver/Src/stm32f4xx_hal_wwdg.c ****   *              the configuration information for the specified WWDG module.
 436:/home/vadimstupakov/Data/STM32/STM32Cube/Repository/STM32Cube_FW_F4_V1.10.0/Drivers/STM32F4xx_HAL_Driver/Src/stm32f4xx_hal_wwdg.c ****   * @retval HAL state
 437:/home/vadimstupakov/Data/STM32/STM32Cube/Repository/STM32Cube_FW_F4_V1.10.0/Drivers/STM32F4xx_HAL_Driver/Src/stm32f4xx_hal_wwdg.c ****   */
 438:/home/vadimstupakov/Data/STM32/STM32Cube/Repository/STM32Cube_FW_F4_V1.10.0/Drivers/STM32F4xx_HAL_Driver/Src/stm32f4xx_hal_wwdg.c **** HAL_WWDG_StateTypeDef HAL_WWDG_GetState(WWDG_HandleTypeDef *hwwdg)
 439:/home/vadimstupakov/Data/STM32/STM32Cube/Repository/STM32Cube_FW_F4_V1.10.0/Drivers/STM32F4xx_HAL_Driver/Src/stm32f4xx_hal_wwdg.c **** {
 623              		.loc 1 439 0
 624              		.cfi_startproc
 625              		@ args = 0, pretend = 0, frame = 8
 626              		@ frame_needed = 1, uses_anonymous_args = 0
 627              		@ link register save eliminated.
 628 0000 80B4     		push	{r7}
 629              	.LCFI51:
 630              		.cfi_def_cfa_offset 4
 631              		.cfi_offset 7, -4
 632 0002 83B0     		sub	sp, sp, #12
 633              	.LCFI52:
 634              		.cfi_def_cfa_offset 16
 635 0004 00AF     		add	r7, sp, #0
 636              	.LCFI53:
 637              		.cfi_def_cfa_register 7
 638 0006 7860     		str	r0, [r7, #4]
 440:/home/vadimstupakov/Data/STM32/STM32Cube/Repository/STM32Cube_FW_F4_V1.10.0/Drivers/STM32F4xx_HAL_Driver/Src/stm32f4xx_hal_wwdg.c ****   return hwwdg->State;
 639              		.loc 1 440 0
 640 0008 7B68     		ldr	r3, [r7, #4]
 641 000a 5B7C     		ldrb	r3, [r3, #17]
 642 000c DBB2     		uxtb	r3, r3
 441:/home/vadimstupakov/Data/STM32/STM32Cube/Repository/STM32Cube_FW_F4_V1.10.0/Drivers/STM32F4xx_HAL_Driver/Src/stm32f4xx_hal_wwdg.c **** }
 643              		.loc 1 441 0
 644 000e 1846     		mov	r0, r3
 645 0010 0C37     		adds	r7, r7, #12
 646              	.LCFI54:
 647              		.cfi_def_cfa_offset 4
 648 0012 BD46     		mov	sp, r7
 649              	.LCFI55:
 650              		.cfi_def_cfa_register 13
 651              		@ sp needed
 652 0014 5DF8047B 		ldr	r7, [sp], #4
 653              	.LCFI56:
 654              		.cfi_restore 7
 655              		.cfi_def_cfa_offset 0
 656 0018 7047     		bx	lr
 657              		.cfi_endproc
 658              	.LFE134:
 660 001a 00BF     		.text
 661              	.Letext0:
 662              		.file 2 "/usr/include/newlib/machine/_default_types.h"
ARM GAS  /tmp/cc70W8W1.s 			page 20


 663              		.file 3 "/usr/include/newlib/stdint.h"
 664              		.file 4 "/home/vadimstupakov/Data/STM32/STM32Cube/Repository/STM32Cube_FW_F4_V1.10.0/Drivers/CMSIS
 665              		.file 5 "/home/vadimstupakov/Data/STM32/STM32Cube/Repository/STM32Cube_FW_F4_V1.10.0/Drivers/CMSIS
 666              		.file 6 "/home/vadimstupakov/Data/STM32/STM32Cube/Repository/STM32Cube_FW_F4_V1.10.0/Drivers/STM32
 667              		.file 7 "/home/vadimstupakov/Data/STM32/STM32Cube/Repository/STM32Cube_FW_F4_V1.10.0/Drivers/STM32
 668              		.file 8 "/home/vadimstupakov/Data/STM32/STM32Cube/Repository/STM32Cube_FW_F4_V1.10.0/Drivers/CMSIS
ARM GAS  /tmp/cc70W8W1.s 			page 21

