ARM GAS  /tmp/ccqDtxhv.s 			page 1


   1              		.syntax unified
   2              		.cpu cortex-m4
   3              		.eabi_attribute 27, 1
   4              		.fpu fpv4-sp-d16
   5              		.eabi_attribute 20, 1
   6              		.eabi_attribute 21, 1
   7              		.eabi_attribute 23, 3
   8              		.eabi_attribute 24, 1
   9              		.eabi_attribute 25, 1
  10              		.eabi_attribute 26, 1
  11              		.eabi_attribute 30, 6
  12              		.eabi_attribute 34, 1
  13              		.eabi_attribute 18, 4
  14              		.thumb
  15              		.file	"stm32f4xx_hal_flash.c"
  16              		.text
  17              	.Ltext0:
  18              		.cfi_sections	.debug_frame
  19              		.comm	pFlash,32,4
  20              		.section	.text.HAL_FLASH_Program,"ax",%progbits
  21              		.align	2
  22              		.global	HAL_FLASH_Program
  23              		.thumb
  24              		.thumb_func
  26              	HAL_FLASH_Program:
  27              	.LFB125:
  28              		.file 1 "/home/vadimstupakov/Data/STM32/STM32Cube/Repository/STM32Cube_FW_F4_V1.10.0/Drivers/STM32
   1:/home/vadimstupakov/Data/STM32/STM32Cube/Repository/STM32Cube_FW_F4_V1.10.0/Drivers/STM32F4xx_HAL_Driver/Src/stm32f4xx_hal_flash.c **** /**
   2:/home/vadimstupakov/Data/STM32/STM32Cube/Repository/STM32Cube_FW_F4_V1.10.0/Drivers/STM32F4xx_HAL_Driver/Src/stm32f4xx_hal_flash.c ****   ******************************************************************************
   3:/home/vadimstupakov/Data/STM32/STM32Cube/Repository/STM32Cube_FW_F4_V1.10.0/Drivers/STM32F4xx_HAL_Driver/Src/stm32f4xx_hal_flash.c ****   * @file    stm32f4xx_hal_flash.c
   4:/home/vadimstupakov/Data/STM32/STM32Cube/Repository/STM32Cube_FW_F4_V1.10.0/Drivers/STM32F4xx_HAL_Driver/Src/stm32f4xx_hal_flash.c ****   * @author  MCD Application Team
   5:/home/vadimstupakov/Data/STM32/STM32Cube/Repository/STM32Cube_FW_F4_V1.10.0/Drivers/STM32F4xx_HAL_Driver/Src/stm32f4xx_hal_flash.c ****   * @version V1.4.2
   6:/home/vadimstupakov/Data/STM32/STM32Cube/Repository/STM32Cube_FW_F4_V1.10.0/Drivers/STM32F4xx_HAL_Driver/Src/stm32f4xx_hal_flash.c ****   * @date    10-November-2015
   7:/home/vadimstupakov/Data/STM32/STM32Cube/Repository/STM32Cube_FW_F4_V1.10.0/Drivers/STM32F4xx_HAL_Driver/Src/stm32f4xx_hal_flash.c ****   * @brief   FLASH HAL module driver.
   8:/home/vadimstupakov/Data/STM32/STM32Cube/Repository/STM32Cube_FW_F4_V1.10.0/Drivers/STM32F4xx_HAL_Driver/Src/stm32f4xx_hal_flash.c ****   *          This file provides firmware functions to manage the following 
   9:/home/vadimstupakov/Data/STM32/STM32Cube/Repository/STM32Cube_FW_F4_V1.10.0/Drivers/STM32F4xx_HAL_Driver/Src/stm32f4xx_hal_flash.c ****   *          functionalities of the internal FLASH memory:
  10:/home/vadimstupakov/Data/STM32/STM32Cube/Repository/STM32Cube_FW_F4_V1.10.0/Drivers/STM32F4xx_HAL_Driver/Src/stm32f4xx_hal_flash.c ****   *           + Program operations functions
  11:/home/vadimstupakov/Data/STM32/STM32Cube/Repository/STM32Cube_FW_F4_V1.10.0/Drivers/STM32F4xx_HAL_Driver/Src/stm32f4xx_hal_flash.c ****   *           + Memory Control functions 
  12:/home/vadimstupakov/Data/STM32/STM32Cube/Repository/STM32Cube_FW_F4_V1.10.0/Drivers/STM32F4xx_HAL_Driver/Src/stm32f4xx_hal_flash.c ****   *           + Peripheral Errors functions
  13:/home/vadimstupakov/Data/STM32/STM32Cube/Repository/STM32Cube_FW_F4_V1.10.0/Drivers/STM32F4xx_HAL_Driver/Src/stm32f4xx_hal_flash.c ****   *         
  14:/home/vadimstupakov/Data/STM32/STM32Cube/Repository/STM32Cube_FW_F4_V1.10.0/Drivers/STM32F4xx_HAL_Driver/Src/stm32f4xx_hal_flash.c ****   @verbatim
  15:/home/vadimstupakov/Data/STM32/STM32Cube/Repository/STM32Cube_FW_F4_V1.10.0/Drivers/STM32F4xx_HAL_Driver/Src/stm32f4xx_hal_flash.c ****   ==============================================================================
  16:/home/vadimstupakov/Data/STM32/STM32Cube/Repository/STM32Cube_FW_F4_V1.10.0/Drivers/STM32F4xx_HAL_Driver/Src/stm32f4xx_hal_flash.c ****                         ##### FLASH peripheral features #####
  17:/home/vadimstupakov/Data/STM32/STM32Cube/Repository/STM32Cube_FW_F4_V1.10.0/Drivers/STM32F4xx_HAL_Driver/Src/stm32f4xx_hal_flash.c ****   ==============================================================================
  18:/home/vadimstupakov/Data/STM32/STM32Cube/Repository/STM32Cube_FW_F4_V1.10.0/Drivers/STM32F4xx_HAL_Driver/Src/stm32f4xx_hal_flash.c ****            
  19:/home/vadimstupakov/Data/STM32/STM32Cube/Repository/STM32Cube_FW_F4_V1.10.0/Drivers/STM32F4xx_HAL_Driver/Src/stm32f4xx_hal_flash.c ****   [..] The Flash memory interface manages CPU AHB I-Code and D-Code accesses 
  20:/home/vadimstupakov/Data/STM32/STM32Cube/Repository/STM32Cube_FW_F4_V1.10.0/Drivers/STM32F4xx_HAL_Driver/Src/stm32f4xx_hal_flash.c ****        to the Flash memory. It implements the erase and program Flash memory operations 
  21:/home/vadimstupakov/Data/STM32/STM32Cube/Repository/STM32Cube_FW_F4_V1.10.0/Drivers/STM32F4xx_HAL_Driver/Src/stm32f4xx_hal_flash.c ****        and the read and write protection mechanisms.
  22:/home/vadimstupakov/Data/STM32/STM32Cube/Repository/STM32Cube_FW_F4_V1.10.0/Drivers/STM32F4xx_HAL_Driver/Src/stm32f4xx_hal_flash.c ****       
  23:/home/vadimstupakov/Data/STM32/STM32Cube/Repository/STM32Cube_FW_F4_V1.10.0/Drivers/STM32F4xx_HAL_Driver/Src/stm32f4xx_hal_flash.c ****   [..] The Flash memory interface accelerates code execution with a system of instruction
  24:/home/vadimstupakov/Data/STM32/STM32Cube/Repository/STM32Cube_FW_F4_V1.10.0/Drivers/STM32F4xx_HAL_Driver/Src/stm32f4xx_hal_flash.c ****        prefetch and cache lines. 
  25:/home/vadimstupakov/Data/STM32/STM32Cube/Repository/STM32Cube_FW_F4_V1.10.0/Drivers/STM32F4xx_HAL_Driver/Src/stm32f4xx_hal_flash.c **** 
  26:/home/vadimstupakov/Data/STM32/STM32Cube/Repository/STM32Cube_FW_F4_V1.10.0/Drivers/STM32F4xx_HAL_Driver/Src/stm32f4xx_hal_flash.c ****   [..] The FLASH main features are:
  27:/home/vadimstupakov/Data/STM32/STM32Cube/Repository/STM32Cube_FW_F4_V1.10.0/Drivers/STM32F4xx_HAL_Driver/Src/stm32f4xx_hal_flash.c ****       (+) Flash memory read operations
  28:/home/vadimstupakov/Data/STM32/STM32Cube/Repository/STM32Cube_FW_F4_V1.10.0/Drivers/STM32F4xx_HAL_Driver/Src/stm32f4xx_hal_flash.c ****       (+) Flash memory program/erase operations
  29:/home/vadimstupakov/Data/STM32/STM32Cube/Repository/STM32Cube_FW_F4_V1.10.0/Drivers/STM32F4xx_HAL_Driver/Src/stm32f4xx_hal_flash.c ****       (+) Read / write protections
  30:/home/vadimstupakov/Data/STM32/STM32Cube/Repository/STM32Cube_FW_F4_V1.10.0/Drivers/STM32F4xx_HAL_Driver/Src/stm32f4xx_hal_flash.c ****       (+) Prefetch on I-Code
ARM GAS  /tmp/ccqDtxhv.s 			page 2


  31:/home/vadimstupakov/Data/STM32/STM32Cube/Repository/STM32Cube_FW_F4_V1.10.0/Drivers/STM32F4xx_HAL_Driver/Src/stm32f4xx_hal_flash.c ****       (+) 64 cache lines of 128 bits on I-Code
  32:/home/vadimstupakov/Data/STM32/STM32Cube/Repository/STM32Cube_FW_F4_V1.10.0/Drivers/STM32F4xx_HAL_Driver/Src/stm32f4xx_hal_flash.c ****       (+) 8 cache lines of 128 bits on D-Code
  33:/home/vadimstupakov/Data/STM32/STM32Cube/Repository/STM32Cube_FW_F4_V1.10.0/Drivers/STM32F4xx_HAL_Driver/Src/stm32f4xx_hal_flash.c ****       
  34:/home/vadimstupakov/Data/STM32/STM32Cube/Repository/STM32Cube_FW_F4_V1.10.0/Drivers/STM32F4xx_HAL_Driver/Src/stm32f4xx_hal_flash.c ****       
  35:/home/vadimstupakov/Data/STM32/STM32Cube/Repository/STM32Cube_FW_F4_V1.10.0/Drivers/STM32F4xx_HAL_Driver/Src/stm32f4xx_hal_flash.c ****                      ##### How to use this driver #####
  36:/home/vadimstupakov/Data/STM32/STM32Cube/Repository/STM32Cube_FW_F4_V1.10.0/Drivers/STM32F4xx_HAL_Driver/Src/stm32f4xx_hal_flash.c ****   ==============================================================================
  37:/home/vadimstupakov/Data/STM32/STM32Cube/Repository/STM32Cube_FW_F4_V1.10.0/Drivers/STM32F4xx_HAL_Driver/Src/stm32f4xx_hal_flash.c ****     [..]                             
  38:/home/vadimstupakov/Data/STM32/STM32Cube/Repository/STM32Cube_FW_F4_V1.10.0/Drivers/STM32F4xx_HAL_Driver/Src/stm32f4xx_hal_flash.c ****       This driver provides functions and macros to configure and program the FLASH 
  39:/home/vadimstupakov/Data/STM32/STM32Cube/Repository/STM32Cube_FW_F4_V1.10.0/Drivers/STM32F4xx_HAL_Driver/Src/stm32f4xx_hal_flash.c ****       memory of all STM32F4xx devices.
  40:/home/vadimstupakov/Data/STM32/STM32Cube/Repository/STM32Cube_FW_F4_V1.10.0/Drivers/STM32F4xx_HAL_Driver/Src/stm32f4xx_hal_flash.c ****     
  41:/home/vadimstupakov/Data/STM32/STM32Cube/Repository/STM32Cube_FW_F4_V1.10.0/Drivers/STM32F4xx_HAL_Driver/Src/stm32f4xx_hal_flash.c ****       (#) FLASH Memory IO Programming functions: 
  42:/home/vadimstupakov/Data/STM32/STM32Cube/Repository/STM32Cube_FW_F4_V1.10.0/Drivers/STM32F4xx_HAL_Driver/Src/stm32f4xx_hal_flash.c ****            (++) Lock and Unlock the FLASH interface using HAL_FLASH_Unlock() and 
  43:/home/vadimstupakov/Data/STM32/STM32Cube/Repository/STM32Cube_FW_F4_V1.10.0/Drivers/STM32F4xx_HAL_Driver/Src/stm32f4xx_hal_flash.c ****                 HAL_FLASH_Lock() functions
  44:/home/vadimstupakov/Data/STM32/STM32Cube/Repository/STM32Cube_FW_F4_V1.10.0/Drivers/STM32F4xx_HAL_Driver/Src/stm32f4xx_hal_flash.c ****            (++) Program functions: byte, half word, word and double word
  45:/home/vadimstupakov/Data/STM32/STM32Cube/Repository/STM32Cube_FW_F4_V1.10.0/Drivers/STM32F4xx_HAL_Driver/Src/stm32f4xx_hal_flash.c ****            (++) There Two modes of programming :
  46:/home/vadimstupakov/Data/STM32/STM32Cube/Repository/STM32Cube_FW_F4_V1.10.0/Drivers/STM32F4xx_HAL_Driver/Src/stm32f4xx_hal_flash.c ****             (+++) Polling mode using HAL_FLASH_Program() function
  47:/home/vadimstupakov/Data/STM32/STM32Cube/Repository/STM32Cube_FW_F4_V1.10.0/Drivers/STM32F4xx_HAL_Driver/Src/stm32f4xx_hal_flash.c ****             (+++) Interrupt mode using HAL_FLASH_Program_IT() function
  48:/home/vadimstupakov/Data/STM32/STM32Cube/Repository/STM32Cube_FW_F4_V1.10.0/Drivers/STM32F4xx_HAL_Driver/Src/stm32f4xx_hal_flash.c ****     
  49:/home/vadimstupakov/Data/STM32/STM32Cube/Repository/STM32Cube_FW_F4_V1.10.0/Drivers/STM32F4xx_HAL_Driver/Src/stm32f4xx_hal_flash.c ****       (#) Interrupts and flags management functions : 
  50:/home/vadimstupakov/Data/STM32/STM32Cube/Repository/STM32Cube_FW_F4_V1.10.0/Drivers/STM32F4xx_HAL_Driver/Src/stm32f4xx_hal_flash.c ****            (++) Handle FLASH interrupts by calling HAL_FLASH_IRQHandler()
  51:/home/vadimstupakov/Data/STM32/STM32Cube/Repository/STM32Cube_FW_F4_V1.10.0/Drivers/STM32F4xx_HAL_Driver/Src/stm32f4xx_hal_flash.c ****            (++) Wait for last FLASH operation according to its status
  52:/home/vadimstupakov/Data/STM32/STM32Cube/Repository/STM32Cube_FW_F4_V1.10.0/Drivers/STM32F4xx_HAL_Driver/Src/stm32f4xx_hal_flash.c ****            (++) Get error flag status by calling HAL_SetErrorCode()          
  53:/home/vadimstupakov/Data/STM32/STM32Cube/Repository/STM32Cube_FW_F4_V1.10.0/Drivers/STM32F4xx_HAL_Driver/Src/stm32f4xx_hal_flash.c **** 
  54:/home/vadimstupakov/Data/STM32/STM32Cube/Repository/STM32Cube_FW_F4_V1.10.0/Drivers/STM32F4xx_HAL_Driver/Src/stm32f4xx_hal_flash.c ****     [..] 
  55:/home/vadimstupakov/Data/STM32/STM32Cube/Repository/STM32Cube_FW_F4_V1.10.0/Drivers/STM32F4xx_HAL_Driver/Src/stm32f4xx_hal_flash.c ****       In addition to these functions, this driver includes a set of macros allowing
  56:/home/vadimstupakov/Data/STM32/STM32Cube/Repository/STM32Cube_FW_F4_V1.10.0/Drivers/STM32F4xx_HAL_Driver/Src/stm32f4xx_hal_flash.c ****       to handle the following operations:
  57:/home/vadimstupakov/Data/STM32/STM32Cube/Repository/STM32Cube_FW_F4_V1.10.0/Drivers/STM32F4xx_HAL_Driver/Src/stm32f4xx_hal_flash.c ****        (+) Set the latency
  58:/home/vadimstupakov/Data/STM32/STM32Cube/Repository/STM32Cube_FW_F4_V1.10.0/Drivers/STM32F4xx_HAL_Driver/Src/stm32f4xx_hal_flash.c ****        (+) Enable/Disable the prefetch buffer
  59:/home/vadimstupakov/Data/STM32/STM32Cube/Repository/STM32Cube_FW_F4_V1.10.0/Drivers/STM32F4xx_HAL_Driver/Src/stm32f4xx_hal_flash.c ****        (+) Enable/Disable the Instruction cache and the Data cache
  60:/home/vadimstupakov/Data/STM32/STM32Cube/Repository/STM32Cube_FW_F4_V1.10.0/Drivers/STM32F4xx_HAL_Driver/Src/stm32f4xx_hal_flash.c ****        (+) Reset the Instruction cache and the Data cache
  61:/home/vadimstupakov/Data/STM32/STM32Cube/Repository/STM32Cube_FW_F4_V1.10.0/Drivers/STM32F4xx_HAL_Driver/Src/stm32f4xx_hal_flash.c ****        (+) Enable/Disable the FLASH interrupts
  62:/home/vadimstupakov/Data/STM32/STM32Cube/Repository/STM32Cube_FW_F4_V1.10.0/Drivers/STM32F4xx_HAL_Driver/Src/stm32f4xx_hal_flash.c ****        (+) Monitor the FLASH flags status
  63:/home/vadimstupakov/Data/STM32/STM32Cube/Repository/STM32Cube_FW_F4_V1.10.0/Drivers/STM32F4xx_HAL_Driver/Src/stm32f4xx_hal_flash.c ****           
  64:/home/vadimstupakov/Data/STM32/STM32Cube/Repository/STM32Cube_FW_F4_V1.10.0/Drivers/STM32F4xx_HAL_Driver/Src/stm32f4xx_hal_flash.c ****   @endverbatim
  65:/home/vadimstupakov/Data/STM32/STM32Cube/Repository/STM32Cube_FW_F4_V1.10.0/Drivers/STM32F4xx_HAL_Driver/Src/stm32f4xx_hal_flash.c ****   ******************************************************************************
  66:/home/vadimstupakov/Data/STM32/STM32Cube/Repository/STM32Cube_FW_F4_V1.10.0/Drivers/STM32F4xx_HAL_Driver/Src/stm32f4xx_hal_flash.c ****   * @attention
  67:/home/vadimstupakov/Data/STM32/STM32Cube/Repository/STM32Cube_FW_F4_V1.10.0/Drivers/STM32F4xx_HAL_Driver/Src/stm32f4xx_hal_flash.c ****   *
  68:/home/vadimstupakov/Data/STM32/STM32Cube/Repository/STM32Cube_FW_F4_V1.10.0/Drivers/STM32F4xx_HAL_Driver/Src/stm32f4xx_hal_flash.c ****   * <h2><center>&copy; COPYRIGHT(c) 2015 STMicroelectronics</center></h2>
  69:/home/vadimstupakov/Data/STM32/STM32Cube/Repository/STM32Cube_FW_F4_V1.10.0/Drivers/STM32F4xx_HAL_Driver/Src/stm32f4xx_hal_flash.c ****   *
  70:/home/vadimstupakov/Data/STM32/STM32Cube/Repository/STM32Cube_FW_F4_V1.10.0/Drivers/STM32F4xx_HAL_Driver/Src/stm32f4xx_hal_flash.c ****   * Redistribution and use in source and binary forms, with or without modification,
  71:/home/vadimstupakov/Data/STM32/STM32Cube/Repository/STM32Cube_FW_F4_V1.10.0/Drivers/STM32F4xx_HAL_Driver/Src/stm32f4xx_hal_flash.c ****   * are permitted provided that the following conditions are met:
  72:/home/vadimstupakov/Data/STM32/STM32Cube/Repository/STM32Cube_FW_F4_V1.10.0/Drivers/STM32F4xx_HAL_Driver/Src/stm32f4xx_hal_flash.c ****   *   1. Redistributions of source code must retain the above copyright notice,
  73:/home/vadimstupakov/Data/STM32/STM32Cube/Repository/STM32Cube_FW_F4_V1.10.0/Drivers/STM32F4xx_HAL_Driver/Src/stm32f4xx_hal_flash.c ****   *      this list of conditions and the following disclaimer.
  74:/home/vadimstupakov/Data/STM32/STM32Cube/Repository/STM32Cube_FW_F4_V1.10.0/Drivers/STM32F4xx_HAL_Driver/Src/stm32f4xx_hal_flash.c ****   *   2. Redistributions in binary form must reproduce the above copyright notice,
  75:/home/vadimstupakov/Data/STM32/STM32Cube/Repository/STM32Cube_FW_F4_V1.10.0/Drivers/STM32F4xx_HAL_Driver/Src/stm32f4xx_hal_flash.c ****   *      this list of conditions and the following disclaimer in the documentation
  76:/home/vadimstupakov/Data/STM32/STM32Cube/Repository/STM32Cube_FW_F4_V1.10.0/Drivers/STM32F4xx_HAL_Driver/Src/stm32f4xx_hal_flash.c ****   *      and/or other materials provided with the distribution.
  77:/home/vadimstupakov/Data/STM32/STM32Cube/Repository/STM32Cube_FW_F4_V1.10.0/Drivers/STM32F4xx_HAL_Driver/Src/stm32f4xx_hal_flash.c ****   *   3. Neither the name of STMicroelectronics nor the names of its contributors
  78:/home/vadimstupakov/Data/STM32/STM32Cube/Repository/STM32Cube_FW_F4_V1.10.0/Drivers/STM32F4xx_HAL_Driver/Src/stm32f4xx_hal_flash.c ****   *      may be used to endorse or promote products derived from this software
  79:/home/vadimstupakov/Data/STM32/STM32Cube/Repository/STM32Cube_FW_F4_V1.10.0/Drivers/STM32F4xx_HAL_Driver/Src/stm32f4xx_hal_flash.c ****   *      without specific prior written permission.
  80:/home/vadimstupakov/Data/STM32/STM32Cube/Repository/STM32Cube_FW_F4_V1.10.0/Drivers/STM32F4xx_HAL_Driver/Src/stm32f4xx_hal_flash.c ****   *
  81:/home/vadimstupakov/Data/STM32/STM32Cube/Repository/STM32Cube_FW_F4_V1.10.0/Drivers/STM32F4xx_HAL_Driver/Src/stm32f4xx_hal_flash.c ****   * THIS SOFTWARE IS PROVIDED BY THE COPYRIGHT HOLDERS AND CONTRIBUTORS "AS IS"
  82:/home/vadimstupakov/Data/STM32/STM32Cube/Repository/STM32Cube_FW_F4_V1.10.0/Drivers/STM32F4xx_HAL_Driver/Src/stm32f4xx_hal_flash.c ****   * AND ANY EXPRESS OR IMPLIED WARRANTIES, INCLUDING, BUT NOT LIMITED TO, THE
  83:/home/vadimstupakov/Data/STM32/STM32Cube/Repository/STM32Cube_FW_F4_V1.10.0/Drivers/STM32F4xx_HAL_Driver/Src/stm32f4xx_hal_flash.c ****   * IMPLIED WARRANTIES OF MERCHANTABILITY AND FITNESS FOR A PARTICULAR PURPOSE ARE
  84:/home/vadimstupakov/Data/STM32/STM32Cube/Repository/STM32Cube_FW_F4_V1.10.0/Drivers/STM32F4xx_HAL_Driver/Src/stm32f4xx_hal_flash.c ****   * DISCLAIMED. IN NO EVENT SHALL THE COPYRIGHT HOLDER OR CONTRIBUTORS BE LIABLE
  85:/home/vadimstupakov/Data/STM32/STM32Cube/Repository/STM32Cube_FW_F4_V1.10.0/Drivers/STM32F4xx_HAL_Driver/Src/stm32f4xx_hal_flash.c ****   * FOR ANY DIRECT, INDIRECT, INCIDENTAL, SPECIAL, EXEMPLARY, OR CONSEQUENTIAL
  86:/home/vadimstupakov/Data/STM32/STM32Cube/Repository/STM32Cube_FW_F4_V1.10.0/Drivers/STM32F4xx_HAL_Driver/Src/stm32f4xx_hal_flash.c ****   * DAMAGES (INCLUDING, BUT NOT LIMITED TO, PROCUREMENT OF SUBSTITUTE GOODS OR
  87:/home/vadimstupakov/Data/STM32/STM32Cube/Repository/STM32Cube_FW_F4_V1.10.0/Drivers/STM32F4xx_HAL_Driver/Src/stm32f4xx_hal_flash.c ****   * SERVICES; LOSS OF USE, DATA, OR PROFITS; OR BUSINESS INTERRUPTION) HOWEVER
ARM GAS  /tmp/ccqDtxhv.s 			page 3


  88:/home/vadimstupakov/Data/STM32/STM32Cube/Repository/STM32Cube_FW_F4_V1.10.0/Drivers/STM32F4xx_HAL_Driver/Src/stm32f4xx_hal_flash.c ****   * CAUSED AND ON ANY THEORY OF LIABILITY, WHETHER IN CONTRACT, STRICT LIABILITY,
  89:/home/vadimstupakov/Data/STM32/STM32Cube/Repository/STM32Cube_FW_F4_V1.10.0/Drivers/STM32F4xx_HAL_Driver/Src/stm32f4xx_hal_flash.c ****   * OR TORT (INCLUDING NEGLIGENCE OR OTHERWISE) ARISING IN ANY WAY OUT OF THE USE
  90:/home/vadimstupakov/Data/STM32/STM32Cube/Repository/STM32Cube_FW_F4_V1.10.0/Drivers/STM32F4xx_HAL_Driver/Src/stm32f4xx_hal_flash.c ****   * OF THIS SOFTWARE, EVEN IF ADVISED OF THE POSSIBILITY OF SUCH DAMAGE.
  91:/home/vadimstupakov/Data/STM32/STM32Cube/Repository/STM32Cube_FW_F4_V1.10.0/Drivers/STM32F4xx_HAL_Driver/Src/stm32f4xx_hal_flash.c ****   *
  92:/home/vadimstupakov/Data/STM32/STM32Cube/Repository/STM32Cube_FW_F4_V1.10.0/Drivers/STM32F4xx_HAL_Driver/Src/stm32f4xx_hal_flash.c ****   ******************************************************************************
  93:/home/vadimstupakov/Data/STM32/STM32Cube/Repository/STM32Cube_FW_F4_V1.10.0/Drivers/STM32F4xx_HAL_Driver/Src/stm32f4xx_hal_flash.c ****   */ 
  94:/home/vadimstupakov/Data/STM32/STM32Cube/Repository/STM32Cube_FW_F4_V1.10.0/Drivers/STM32F4xx_HAL_Driver/Src/stm32f4xx_hal_flash.c **** 
  95:/home/vadimstupakov/Data/STM32/STM32Cube/Repository/STM32Cube_FW_F4_V1.10.0/Drivers/STM32F4xx_HAL_Driver/Src/stm32f4xx_hal_flash.c **** /* Includes ------------------------------------------------------------------*/
  96:/home/vadimstupakov/Data/STM32/STM32Cube/Repository/STM32Cube_FW_F4_V1.10.0/Drivers/STM32F4xx_HAL_Driver/Src/stm32f4xx_hal_flash.c **** #include "stm32f4xx_hal.h"
  97:/home/vadimstupakov/Data/STM32/STM32Cube/Repository/STM32Cube_FW_F4_V1.10.0/Drivers/STM32F4xx_HAL_Driver/Src/stm32f4xx_hal_flash.c **** 
  98:/home/vadimstupakov/Data/STM32/STM32Cube/Repository/STM32Cube_FW_F4_V1.10.0/Drivers/STM32F4xx_HAL_Driver/Src/stm32f4xx_hal_flash.c **** /** @addtogroup STM32F4xx_HAL_Driver
  99:/home/vadimstupakov/Data/STM32/STM32Cube/Repository/STM32Cube_FW_F4_V1.10.0/Drivers/STM32F4xx_HAL_Driver/Src/stm32f4xx_hal_flash.c ****   * @{
 100:/home/vadimstupakov/Data/STM32/STM32Cube/Repository/STM32Cube_FW_F4_V1.10.0/Drivers/STM32F4xx_HAL_Driver/Src/stm32f4xx_hal_flash.c ****   */
 101:/home/vadimstupakov/Data/STM32/STM32Cube/Repository/STM32Cube_FW_F4_V1.10.0/Drivers/STM32F4xx_HAL_Driver/Src/stm32f4xx_hal_flash.c **** 
 102:/home/vadimstupakov/Data/STM32/STM32Cube/Repository/STM32Cube_FW_F4_V1.10.0/Drivers/STM32F4xx_HAL_Driver/Src/stm32f4xx_hal_flash.c **** /** @defgroup FLASH FLASH
 103:/home/vadimstupakov/Data/STM32/STM32Cube/Repository/STM32Cube_FW_F4_V1.10.0/Drivers/STM32F4xx_HAL_Driver/Src/stm32f4xx_hal_flash.c ****   * @brief FLASH HAL module driver
 104:/home/vadimstupakov/Data/STM32/STM32Cube/Repository/STM32Cube_FW_F4_V1.10.0/Drivers/STM32F4xx_HAL_Driver/Src/stm32f4xx_hal_flash.c ****   * @{
 105:/home/vadimstupakov/Data/STM32/STM32Cube/Repository/STM32Cube_FW_F4_V1.10.0/Drivers/STM32F4xx_HAL_Driver/Src/stm32f4xx_hal_flash.c ****   */
 106:/home/vadimstupakov/Data/STM32/STM32Cube/Repository/STM32Cube_FW_F4_V1.10.0/Drivers/STM32F4xx_HAL_Driver/Src/stm32f4xx_hal_flash.c **** 
 107:/home/vadimstupakov/Data/STM32/STM32Cube/Repository/STM32Cube_FW_F4_V1.10.0/Drivers/STM32F4xx_HAL_Driver/Src/stm32f4xx_hal_flash.c **** #ifdef HAL_FLASH_MODULE_ENABLED
 108:/home/vadimstupakov/Data/STM32/STM32Cube/Repository/STM32Cube_FW_F4_V1.10.0/Drivers/STM32F4xx_HAL_Driver/Src/stm32f4xx_hal_flash.c **** 
 109:/home/vadimstupakov/Data/STM32/STM32Cube/Repository/STM32Cube_FW_F4_V1.10.0/Drivers/STM32F4xx_HAL_Driver/Src/stm32f4xx_hal_flash.c **** /* Private typedef -----------------------------------------------------------*/
 110:/home/vadimstupakov/Data/STM32/STM32Cube/Repository/STM32Cube_FW_F4_V1.10.0/Drivers/STM32F4xx_HAL_Driver/Src/stm32f4xx_hal_flash.c **** /* Private define ------------------------------------------------------------*/
 111:/home/vadimstupakov/Data/STM32/STM32Cube/Repository/STM32Cube_FW_F4_V1.10.0/Drivers/STM32F4xx_HAL_Driver/Src/stm32f4xx_hal_flash.c **** /** @addtogroup FLASH_Private_Constants
 112:/home/vadimstupakov/Data/STM32/STM32Cube/Repository/STM32Cube_FW_F4_V1.10.0/Drivers/STM32F4xx_HAL_Driver/Src/stm32f4xx_hal_flash.c ****   * @{
 113:/home/vadimstupakov/Data/STM32/STM32Cube/Repository/STM32Cube_FW_F4_V1.10.0/Drivers/STM32F4xx_HAL_Driver/Src/stm32f4xx_hal_flash.c ****   */
 114:/home/vadimstupakov/Data/STM32/STM32Cube/Repository/STM32Cube_FW_F4_V1.10.0/Drivers/STM32F4xx_HAL_Driver/Src/stm32f4xx_hal_flash.c **** #define FLASH_TIMEOUT_VALUE       ((uint32_t)50000)/* 50 s */
 115:/home/vadimstupakov/Data/STM32/STM32Cube/Repository/STM32Cube_FW_F4_V1.10.0/Drivers/STM32F4xx_HAL_Driver/Src/stm32f4xx_hal_flash.c **** /**
 116:/home/vadimstupakov/Data/STM32/STM32Cube/Repository/STM32Cube_FW_F4_V1.10.0/Drivers/STM32F4xx_HAL_Driver/Src/stm32f4xx_hal_flash.c ****   * @}
 117:/home/vadimstupakov/Data/STM32/STM32Cube/Repository/STM32Cube_FW_F4_V1.10.0/Drivers/STM32F4xx_HAL_Driver/Src/stm32f4xx_hal_flash.c ****   */         
 118:/home/vadimstupakov/Data/STM32/STM32Cube/Repository/STM32Cube_FW_F4_V1.10.0/Drivers/STM32F4xx_HAL_Driver/Src/stm32f4xx_hal_flash.c **** /* Private macro -------------------------------------------------------------*/
 119:/home/vadimstupakov/Data/STM32/STM32Cube/Repository/STM32Cube_FW_F4_V1.10.0/Drivers/STM32F4xx_HAL_Driver/Src/stm32f4xx_hal_flash.c **** /* Private variables ---------------------------------------------------------*/
 120:/home/vadimstupakov/Data/STM32/STM32Cube/Repository/STM32Cube_FW_F4_V1.10.0/Drivers/STM32F4xx_HAL_Driver/Src/stm32f4xx_hal_flash.c **** /** @addtogroup FLASH_Private_Variables
 121:/home/vadimstupakov/Data/STM32/STM32Cube/Repository/STM32Cube_FW_F4_V1.10.0/Drivers/STM32F4xx_HAL_Driver/Src/stm32f4xx_hal_flash.c ****   * @{
 122:/home/vadimstupakov/Data/STM32/STM32Cube/Repository/STM32Cube_FW_F4_V1.10.0/Drivers/STM32F4xx_HAL_Driver/Src/stm32f4xx_hal_flash.c ****   */
 123:/home/vadimstupakov/Data/STM32/STM32Cube/Repository/STM32Cube_FW_F4_V1.10.0/Drivers/STM32F4xx_HAL_Driver/Src/stm32f4xx_hal_flash.c **** /* Variable used for Erase sectors under interruption */
 124:/home/vadimstupakov/Data/STM32/STM32Cube/Repository/STM32Cube_FW_F4_V1.10.0/Drivers/STM32F4xx_HAL_Driver/Src/stm32f4xx_hal_flash.c **** FLASH_ProcessTypeDef pFlash;
 125:/home/vadimstupakov/Data/STM32/STM32Cube/Repository/STM32Cube_FW_F4_V1.10.0/Drivers/STM32F4xx_HAL_Driver/Src/stm32f4xx_hal_flash.c **** /**
 126:/home/vadimstupakov/Data/STM32/STM32Cube/Repository/STM32Cube_FW_F4_V1.10.0/Drivers/STM32F4xx_HAL_Driver/Src/stm32f4xx_hal_flash.c ****   * @}
 127:/home/vadimstupakov/Data/STM32/STM32Cube/Repository/STM32Cube_FW_F4_V1.10.0/Drivers/STM32F4xx_HAL_Driver/Src/stm32f4xx_hal_flash.c ****   */
 128:/home/vadimstupakov/Data/STM32/STM32Cube/Repository/STM32Cube_FW_F4_V1.10.0/Drivers/STM32F4xx_HAL_Driver/Src/stm32f4xx_hal_flash.c **** 
 129:/home/vadimstupakov/Data/STM32/STM32Cube/Repository/STM32Cube_FW_F4_V1.10.0/Drivers/STM32F4xx_HAL_Driver/Src/stm32f4xx_hal_flash.c **** /* Private function prototypes -----------------------------------------------*/
 130:/home/vadimstupakov/Data/STM32/STM32Cube/Repository/STM32Cube_FW_F4_V1.10.0/Drivers/STM32F4xx_HAL_Driver/Src/stm32f4xx_hal_flash.c **** /** @addtogroup FLASH_Private_Functions
 131:/home/vadimstupakov/Data/STM32/STM32Cube/Repository/STM32Cube_FW_F4_V1.10.0/Drivers/STM32F4xx_HAL_Driver/Src/stm32f4xx_hal_flash.c ****   * @{
 132:/home/vadimstupakov/Data/STM32/STM32Cube/Repository/STM32Cube_FW_F4_V1.10.0/Drivers/STM32F4xx_HAL_Driver/Src/stm32f4xx_hal_flash.c ****   */
 133:/home/vadimstupakov/Data/STM32/STM32Cube/Repository/STM32Cube_FW_F4_V1.10.0/Drivers/STM32F4xx_HAL_Driver/Src/stm32f4xx_hal_flash.c **** /* Program operations */
 134:/home/vadimstupakov/Data/STM32/STM32Cube/Repository/STM32Cube_FW_F4_V1.10.0/Drivers/STM32F4xx_HAL_Driver/Src/stm32f4xx_hal_flash.c **** static void   FLASH_Program_DoubleWord(uint32_t Address, uint64_t Data);
 135:/home/vadimstupakov/Data/STM32/STM32Cube/Repository/STM32Cube_FW_F4_V1.10.0/Drivers/STM32F4xx_HAL_Driver/Src/stm32f4xx_hal_flash.c **** static void   FLASH_Program_Word(uint32_t Address, uint32_t Data);
 136:/home/vadimstupakov/Data/STM32/STM32Cube/Repository/STM32Cube_FW_F4_V1.10.0/Drivers/STM32F4xx_HAL_Driver/Src/stm32f4xx_hal_flash.c **** static void   FLASH_Program_HalfWord(uint32_t Address, uint16_t Data);
 137:/home/vadimstupakov/Data/STM32/STM32Cube/Repository/STM32Cube_FW_F4_V1.10.0/Drivers/STM32F4xx_HAL_Driver/Src/stm32f4xx_hal_flash.c **** static void   FLASH_Program_Byte(uint32_t Address, uint8_t Data);
 138:/home/vadimstupakov/Data/STM32/STM32Cube/Repository/STM32Cube_FW_F4_V1.10.0/Drivers/STM32F4xx_HAL_Driver/Src/stm32f4xx_hal_flash.c **** static void   FLASH_SetErrorCode(void);
 139:/home/vadimstupakov/Data/STM32/STM32Cube/Repository/STM32Cube_FW_F4_V1.10.0/Drivers/STM32F4xx_HAL_Driver/Src/stm32f4xx_hal_flash.c **** 
 140:/home/vadimstupakov/Data/STM32/STM32Cube/Repository/STM32Cube_FW_F4_V1.10.0/Drivers/STM32F4xx_HAL_Driver/Src/stm32f4xx_hal_flash.c **** HAL_StatusTypeDef FLASH_WaitForLastOperation(uint32_t Timeout);
 141:/home/vadimstupakov/Data/STM32/STM32Cube/Repository/STM32Cube_FW_F4_V1.10.0/Drivers/STM32F4xx_HAL_Driver/Src/stm32f4xx_hal_flash.c **** /**
 142:/home/vadimstupakov/Data/STM32/STM32Cube/Repository/STM32Cube_FW_F4_V1.10.0/Drivers/STM32F4xx_HAL_Driver/Src/stm32f4xx_hal_flash.c ****   * @}
 143:/home/vadimstupakov/Data/STM32/STM32Cube/Repository/STM32Cube_FW_F4_V1.10.0/Drivers/STM32F4xx_HAL_Driver/Src/stm32f4xx_hal_flash.c ****   */
 144:/home/vadimstupakov/Data/STM32/STM32Cube/Repository/STM32Cube_FW_F4_V1.10.0/Drivers/STM32F4xx_HAL_Driver/Src/stm32f4xx_hal_flash.c **** 
ARM GAS  /tmp/ccqDtxhv.s 			page 4


 145:/home/vadimstupakov/Data/STM32/STM32Cube/Repository/STM32Cube_FW_F4_V1.10.0/Drivers/STM32F4xx_HAL_Driver/Src/stm32f4xx_hal_flash.c **** /* Exported functions --------------------------------------------------------*/
 146:/home/vadimstupakov/Data/STM32/STM32Cube/Repository/STM32Cube_FW_F4_V1.10.0/Drivers/STM32F4xx_HAL_Driver/Src/stm32f4xx_hal_flash.c **** /** @defgroup FLASH_Exported_Functions FLASH Exported Functions
 147:/home/vadimstupakov/Data/STM32/STM32Cube/Repository/STM32Cube_FW_F4_V1.10.0/Drivers/STM32F4xx_HAL_Driver/Src/stm32f4xx_hal_flash.c ****   * @{
 148:/home/vadimstupakov/Data/STM32/STM32Cube/Repository/STM32Cube_FW_F4_V1.10.0/Drivers/STM32F4xx_HAL_Driver/Src/stm32f4xx_hal_flash.c ****   */
 149:/home/vadimstupakov/Data/STM32/STM32Cube/Repository/STM32Cube_FW_F4_V1.10.0/Drivers/STM32F4xx_HAL_Driver/Src/stm32f4xx_hal_flash.c ****   
 150:/home/vadimstupakov/Data/STM32/STM32Cube/Repository/STM32Cube_FW_F4_V1.10.0/Drivers/STM32F4xx_HAL_Driver/Src/stm32f4xx_hal_flash.c **** /** @defgroup FLASH_Exported_Functions_Group1 Programming operation functions 
 151:/home/vadimstupakov/Data/STM32/STM32Cube/Repository/STM32Cube_FW_F4_V1.10.0/Drivers/STM32F4xx_HAL_Driver/Src/stm32f4xx_hal_flash.c ****  *  @brief   Programming operation functions 
 152:/home/vadimstupakov/Data/STM32/STM32Cube/Repository/STM32Cube_FW_F4_V1.10.0/Drivers/STM32F4xx_HAL_Driver/Src/stm32f4xx_hal_flash.c ****  *
 153:/home/vadimstupakov/Data/STM32/STM32Cube/Repository/STM32Cube_FW_F4_V1.10.0/Drivers/STM32F4xx_HAL_Driver/Src/stm32f4xx_hal_flash.c **** @verbatim   
 154:/home/vadimstupakov/Data/STM32/STM32Cube/Repository/STM32Cube_FW_F4_V1.10.0/Drivers/STM32F4xx_HAL_Driver/Src/stm32f4xx_hal_flash.c ****  ===============================================================================
 155:/home/vadimstupakov/Data/STM32/STM32Cube/Repository/STM32Cube_FW_F4_V1.10.0/Drivers/STM32F4xx_HAL_Driver/Src/stm32f4xx_hal_flash.c ****                   ##### Programming operation functions #####
 156:/home/vadimstupakov/Data/STM32/STM32Cube/Repository/STM32Cube_FW_F4_V1.10.0/Drivers/STM32F4xx_HAL_Driver/Src/stm32f4xx_hal_flash.c ****  ===============================================================================  
 157:/home/vadimstupakov/Data/STM32/STM32Cube/Repository/STM32Cube_FW_F4_V1.10.0/Drivers/STM32F4xx_HAL_Driver/Src/stm32f4xx_hal_flash.c ****     [..]
 158:/home/vadimstupakov/Data/STM32/STM32Cube/Repository/STM32Cube_FW_F4_V1.10.0/Drivers/STM32F4xx_HAL_Driver/Src/stm32f4xx_hal_flash.c ****     This subsection provides a set of functions allowing to manage the FLASH 
 159:/home/vadimstupakov/Data/STM32/STM32Cube/Repository/STM32Cube_FW_F4_V1.10.0/Drivers/STM32F4xx_HAL_Driver/Src/stm32f4xx_hal_flash.c ****     program operations.
 160:/home/vadimstupakov/Data/STM32/STM32Cube/Repository/STM32Cube_FW_F4_V1.10.0/Drivers/STM32F4xx_HAL_Driver/Src/stm32f4xx_hal_flash.c **** 
 161:/home/vadimstupakov/Data/STM32/STM32Cube/Repository/STM32Cube_FW_F4_V1.10.0/Drivers/STM32F4xx_HAL_Driver/Src/stm32f4xx_hal_flash.c **** @endverbatim
 162:/home/vadimstupakov/Data/STM32/STM32Cube/Repository/STM32Cube_FW_F4_V1.10.0/Drivers/STM32F4xx_HAL_Driver/Src/stm32f4xx_hal_flash.c ****   * @{
 163:/home/vadimstupakov/Data/STM32/STM32Cube/Repository/STM32Cube_FW_F4_V1.10.0/Drivers/STM32F4xx_HAL_Driver/Src/stm32f4xx_hal_flash.c ****   */
 164:/home/vadimstupakov/Data/STM32/STM32Cube/Repository/STM32Cube_FW_F4_V1.10.0/Drivers/STM32F4xx_HAL_Driver/Src/stm32f4xx_hal_flash.c **** 
 165:/home/vadimstupakov/Data/STM32/STM32Cube/Repository/STM32Cube_FW_F4_V1.10.0/Drivers/STM32F4xx_HAL_Driver/Src/stm32f4xx_hal_flash.c **** /**
 166:/home/vadimstupakov/Data/STM32/STM32Cube/Repository/STM32Cube_FW_F4_V1.10.0/Drivers/STM32F4xx_HAL_Driver/Src/stm32f4xx_hal_flash.c ****   * @brief  Program byte, halfword, word or double word at a specified address
 167:/home/vadimstupakov/Data/STM32/STM32Cube/Repository/STM32Cube_FW_F4_V1.10.0/Drivers/STM32F4xx_HAL_Driver/Src/stm32f4xx_hal_flash.c ****   * @param  TypeProgram:  Indicate the way to program at a specified address.
 168:/home/vadimstupakov/Data/STM32/STM32Cube/Repository/STM32Cube_FW_F4_V1.10.0/Drivers/STM32F4xx_HAL_Driver/Src/stm32f4xx_hal_flash.c ****   *                           This parameter can be a value of @ref FLASH_Type_Program
 169:/home/vadimstupakov/Data/STM32/STM32Cube/Repository/STM32Cube_FW_F4_V1.10.0/Drivers/STM32F4xx_HAL_Driver/Src/stm32f4xx_hal_flash.c ****   * @param  Address:  specifies the address to be programmed.
 170:/home/vadimstupakov/Data/STM32/STM32Cube/Repository/STM32Cube_FW_F4_V1.10.0/Drivers/STM32F4xx_HAL_Driver/Src/stm32f4xx_hal_flash.c ****   * @param  Data: specifies the data to be programmed
 171:/home/vadimstupakov/Data/STM32/STM32Cube/Repository/STM32Cube_FW_F4_V1.10.0/Drivers/STM32F4xx_HAL_Driver/Src/stm32f4xx_hal_flash.c ****   * 
 172:/home/vadimstupakov/Data/STM32/STM32Cube/Repository/STM32Cube_FW_F4_V1.10.0/Drivers/STM32F4xx_HAL_Driver/Src/stm32f4xx_hal_flash.c ****   * @retval HAL_StatusTypeDef HAL Status
 173:/home/vadimstupakov/Data/STM32/STM32Cube/Repository/STM32Cube_FW_F4_V1.10.0/Drivers/STM32F4xx_HAL_Driver/Src/stm32f4xx_hal_flash.c ****   */
 174:/home/vadimstupakov/Data/STM32/STM32Cube/Repository/STM32Cube_FW_F4_V1.10.0/Drivers/STM32F4xx_HAL_Driver/Src/stm32f4xx_hal_flash.c **** HAL_StatusTypeDef HAL_FLASH_Program(uint32_t TypeProgram, uint32_t Address, uint64_t Data)
 175:/home/vadimstupakov/Data/STM32/STM32Cube/Repository/STM32Cube_FW_F4_V1.10.0/Drivers/STM32F4xx_HAL_Driver/Src/stm32f4xx_hal_flash.c **** {
  29              		.loc 1 175 0
  30              		.cfi_startproc
  31              		@ args = 0, pretend = 0, frame = 24
  32              		@ frame_needed = 1, uses_anonymous_args = 0
  33 0000 80B5     		push	{r7, lr}
  34              	.LCFI0:
  35              		.cfi_def_cfa_offset 8
  36              		.cfi_offset 7, -8
  37              		.cfi_offset 14, -4
  38 0002 86B0     		sub	sp, sp, #24
  39              	.LCFI1:
  40              		.cfi_def_cfa_offset 32
  41 0004 00AF     		add	r7, sp, #0
  42              	.LCFI2:
  43              		.cfi_def_cfa_register 7
  44 0006 F860     		str	r0, [r7, #12]
  45 0008 B960     		str	r1, [r7, #8]
  46 000a C7E90023 		strd	r2, [r7]
 176:/home/vadimstupakov/Data/STM32/STM32Cube/Repository/STM32Cube_FW_F4_V1.10.0/Drivers/STM32F4xx_HAL_Driver/Src/stm32f4xx_hal_flash.c ****   HAL_StatusTypeDef status = HAL_ERROR;
  47              		.loc 1 176 0
  48 000e 0123     		movs	r3, #1
  49 0010 FB75     		strb	r3, [r7, #23]
 177:/home/vadimstupakov/Data/STM32/STM32Cube/Repository/STM32Cube_FW_F4_V1.10.0/Drivers/STM32F4xx_HAL_Driver/Src/stm32f4xx_hal_flash.c ****   
 178:/home/vadimstupakov/Data/STM32/STM32Cube/Repository/STM32Cube_FW_F4_V1.10.0/Drivers/STM32F4xx_HAL_Driver/Src/stm32f4xx_hal_flash.c ****   /* Process Locked */
 179:/home/vadimstupakov/Data/STM32/STM32Cube/Repository/STM32Cube_FW_F4_V1.10.0/Drivers/STM32F4xx_HAL_Driver/Src/stm32f4xx_hal_flash.c ****   __HAL_LOCK(&pFlash);
  50              		.loc 1 179 0
ARM GAS  /tmp/ccqDtxhv.s 			page 5


  51 0012 234B     		ldr	r3, .L9
  52 0014 1B7E     		ldrb	r3, [r3, #24]	@ zero_extendqisi2
  53 0016 012B     		cmp	r3, #1
  54 0018 01D1     		bne	.L2
  55              		.loc 1 179 0 is_stmt 0 discriminator 1
  56 001a 0223     		movs	r3, #2
  57 001c 3BE0     		b	.L3
  58              	.L2:
  59              		.loc 1 179 0 discriminator 2
  60 001e 204B     		ldr	r3, .L9
  61 0020 0122     		movs	r2, #1
  62 0022 1A76     		strb	r2, [r3, #24]
 180:/home/vadimstupakov/Data/STM32/STM32Cube/Repository/STM32Cube_FW_F4_V1.10.0/Drivers/STM32F4xx_HAL_Driver/Src/stm32f4xx_hal_flash.c ****   
 181:/home/vadimstupakov/Data/STM32/STM32Cube/Repository/STM32Cube_FW_F4_V1.10.0/Drivers/STM32F4xx_HAL_Driver/Src/stm32f4xx_hal_flash.c ****   /* Check the parameters */
 182:/home/vadimstupakov/Data/STM32/STM32Cube/Repository/STM32Cube_FW_F4_V1.10.0/Drivers/STM32F4xx_HAL_Driver/Src/stm32f4xx_hal_flash.c ****   assert_param(IS_FLASH_TYPEPROGRAM(TypeProgram));
 183:/home/vadimstupakov/Data/STM32/STM32Cube/Repository/STM32Cube_FW_F4_V1.10.0/Drivers/STM32F4xx_HAL_Driver/Src/stm32f4xx_hal_flash.c ****   
 184:/home/vadimstupakov/Data/STM32/STM32Cube/Repository/STM32Cube_FW_F4_V1.10.0/Drivers/STM32F4xx_HAL_Driver/Src/stm32f4xx_hal_flash.c ****   /* Wait for last operation to be completed */
 185:/home/vadimstupakov/Data/STM32/STM32Cube/Repository/STM32Cube_FW_F4_V1.10.0/Drivers/STM32F4xx_HAL_Driver/Src/stm32f4xx_hal_flash.c ****   status = FLASH_WaitForLastOperation((uint32_t)FLASH_TIMEOUT_VALUE);
  63              		.loc 1 185 0 is_stmt 1 discriminator 2
  64 0024 4CF25030 		movw	r0, #50000
  65 0028 FFF7FEFF 		bl	FLASH_WaitForLastOperation
  66 002c 0346     		mov	r3, r0
  67 002e FB75     		strb	r3, [r7, #23]
 186:/home/vadimstupakov/Data/STM32/STM32Cube/Repository/STM32Cube_FW_F4_V1.10.0/Drivers/STM32F4xx_HAL_Driver/Src/stm32f4xx_hal_flash.c ****   
 187:/home/vadimstupakov/Data/STM32/STM32Cube/Repository/STM32Cube_FW_F4_V1.10.0/Drivers/STM32F4xx_HAL_Driver/Src/stm32f4xx_hal_flash.c ****   if(status == HAL_OK)
  68              		.loc 1 187 0 discriminator 2
  69 0030 FB7D     		ldrb	r3, [r7, #23]	@ zero_extendqisi2
  70 0032 002B     		cmp	r3, #0
  71 0034 2BD1     		bne	.L4
 188:/home/vadimstupakov/Data/STM32/STM32Cube/Repository/STM32Cube_FW_F4_V1.10.0/Drivers/STM32F4xx_HAL_Driver/Src/stm32f4xx_hal_flash.c ****   {
 189:/home/vadimstupakov/Data/STM32/STM32Cube/Repository/STM32Cube_FW_F4_V1.10.0/Drivers/STM32F4xx_HAL_Driver/Src/stm32f4xx_hal_flash.c ****     if(TypeProgram == FLASH_TYPEPROGRAM_BYTE)
  72              		.loc 1 189 0
  73 0036 FB68     		ldr	r3, [r7, #12]
  74 0038 002B     		cmp	r3, #0
  75 003a 05D1     		bne	.L5
 190:/home/vadimstupakov/Data/STM32/STM32Cube/Repository/STM32Cube_FW_F4_V1.10.0/Drivers/STM32F4xx_HAL_Driver/Src/stm32f4xx_hal_flash.c ****     {
 191:/home/vadimstupakov/Data/STM32/STM32Cube/Repository/STM32Cube_FW_F4_V1.10.0/Drivers/STM32F4xx_HAL_Driver/Src/stm32f4xx_hal_flash.c ****       /*Program byte (8-bit) at a specified address.*/
 192:/home/vadimstupakov/Data/STM32/STM32Cube/Repository/STM32Cube_FW_F4_V1.10.0/Drivers/STM32F4xx_HAL_Driver/Src/stm32f4xx_hal_flash.c ****       FLASH_Program_Byte(Address, (uint8_t) Data);
  76              		.loc 1 192 0
  77 003c 3B78     		ldrb	r3, [r7]	@ zero_extendqisi2
  78 003e B868     		ldr	r0, [r7, #8]
  79 0040 1946     		mov	r1, r3
  80 0042 FFF7FEFF 		bl	FLASH_Program_Byte
  81 0046 16E0     		b	.L6
  82              	.L5:
 193:/home/vadimstupakov/Data/STM32/STM32Cube/Repository/STM32Cube_FW_F4_V1.10.0/Drivers/STM32F4xx_HAL_Driver/Src/stm32f4xx_hal_flash.c ****     }
 194:/home/vadimstupakov/Data/STM32/STM32Cube/Repository/STM32Cube_FW_F4_V1.10.0/Drivers/STM32F4xx_HAL_Driver/Src/stm32f4xx_hal_flash.c ****     else if(TypeProgram == FLASH_TYPEPROGRAM_HALFWORD)
  83              		.loc 1 194 0
  84 0048 FB68     		ldr	r3, [r7, #12]
  85 004a 012B     		cmp	r3, #1
  86 004c 05D1     		bne	.L7
 195:/home/vadimstupakov/Data/STM32/STM32Cube/Repository/STM32Cube_FW_F4_V1.10.0/Drivers/STM32F4xx_HAL_Driver/Src/stm32f4xx_hal_flash.c ****     {
 196:/home/vadimstupakov/Data/STM32/STM32Cube/Repository/STM32Cube_FW_F4_V1.10.0/Drivers/STM32F4xx_HAL_Driver/Src/stm32f4xx_hal_flash.c ****       /*Program halfword (16-bit) at a specified address.*/
 197:/home/vadimstupakov/Data/STM32/STM32Cube/Repository/STM32Cube_FW_F4_V1.10.0/Drivers/STM32F4xx_HAL_Driver/Src/stm32f4xx_hal_flash.c ****       FLASH_Program_HalfWord(Address, (uint16_t) Data);
  87              		.loc 1 197 0
  88 004e 3B88     		ldrh	r3, [r7]
  89 0050 B868     		ldr	r0, [r7, #8]
ARM GAS  /tmp/ccqDtxhv.s 			page 6


  90 0052 1946     		mov	r1, r3
  91 0054 FFF7FEFF 		bl	FLASH_Program_HalfWord
  92 0058 0DE0     		b	.L6
  93              	.L7:
 198:/home/vadimstupakov/Data/STM32/STM32Cube/Repository/STM32Cube_FW_F4_V1.10.0/Drivers/STM32F4xx_HAL_Driver/Src/stm32f4xx_hal_flash.c ****     }
 199:/home/vadimstupakov/Data/STM32/STM32Cube/Repository/STM32Cube_FW_F4_V1.10.0/Drivers/STM32F4xx_HAL_Driver/Src/stm32f4xx_hal_flash.c ****     else if(TypeProgram == FLASH_TYPEPROGRAM_WORD)
  94              		.loc 1 199 0
  95 005a FB68     		ldr	r3, [r7, #12]
  96 005c 022B     		cmp	r3, #2
  97 005e 05D1     		bne	.L8
 200:/home/vadimstupakov/Data/STM32/STM32Cube/Repository/STM32Cube_FW_F4_V1.10.0/Drivers/STM32F4xx_HAL_Driver/Src/stm32f4xx_hal_flash.c ****     {
 201:/home/vadimstupakov/Data/STM32/STM32Cube/Repository/STM32Cube_FW_F4_V1.10.0/Drivers/STM32F4xx_HAL_Driver/Src/stm32f4xx_hal_flash.c ****       /*Program word (32-bit) at a specified address.*/
 202:/home/vadimstupakov/Data/STM32/STM32Cube/Repository/STM32Cube_FW_F4_V1.10.0/Drivers/STM32F4xx_HAL_Driver/Src/stm32f4xx_hal_flash.c ****       FLASH_Program_Word(Address, (uint32_t) Data);
  98              		.loc 1 202 0
  99 0060 3B68     		ldr	r3, [r7]
 100 0062 B868     		ldr	r0, [r7, #8]
 101 0064 1946     		mov	r1, r3
 102 0066 FFF7FEFF 		bl	FLASH_Program_Word
 103 006a 04E0     		b	.L6
 104              	.L8:
 203:/home/vadimstupakov/Data/STM32/STM32Cube/Repository/STM32Cube_FW_F4_V1.10.0/Drivers/STM32F4xx_HAL_Driver/Src/stm32f4xx_hal_flash.c ****     }
 204:/home/vadimstupakov/Data/STM32/STM32Cube/Repository/STM32Cube_FW_F4_V1.10.0/Drivers/STM32F4xx_HAL_Driver/Src/stm32f4xx_hal_flash.c ****     else
 205:/home/vadimstupakov/Data/STM32/STM32Cube/Repository/STM32Cube_FW_F4_V1.10.0/Drivers/STM32F4xx_HAL_Driver/Src/stm32f4xx_hal_flash.c ****     {
 206:/home/vadimstupakov/Data/STM32/STM32Cube/Repository/STM32Cube_FW_F4_V1.10.0/Drivers/STM32F4xx_HAL_Driver/Src/stm32f4xx_hal_flash.c ****       /*Program double word (64-bit) at a specified address.*/
 207:/home/vadimstupakov/Data/STM32/STM32Cube/Repository/STM32Cube_FW_F4_V1.10.0/Drivers/STM32F4xx_HAL_Driver/Src/stm32f4xx_hal_flash.c ****       FLASH_Program_DoubleWord(Address, Data);
 105              		.loc 1 207 0
 106 006c B868     		ldr	r0, [r7, #8]
 107 006e D7E90023 		ldrd	r2, [r7]
 108 0072 FFF7FEFF 		bl	FLASH_Program_DoubleWord
 109              	.L6:
 208:/home/vadimstupakov/Data/STM32/STM32Cube/Repository/STM32Cube_FW_F4_V1.10.0/Drivers/STM32F4xx_HAL_Driver/Src/stm32f4xx_hal_flash.c ****     }
 209:/home/vadimstupakov/Data/STM32/STM32Cube/Repository/STM32Cube_FW_F4_V1.10.0/Drivers/STM32F4xx_HAL_Driver/Src/stm32f4xx_hal_flash.c ****     
 210:/home/vadimstupakov/Data/STM32/STM32Cube/Repository/STM32Cube_FW_F4_V1.10.0/Drivers/STM32F4xx_HAL_Driver/Src/stm32f4xx_hal_flash.c ****     /* Wait for last operation to be completed */
 211:/home/vadimstupakov/Data/STM32/STM32Cube/Repository/STM32Cube_FW_F4_V1.10.0/Drivers/STM32F4xx_HAL_Driver/Src/stm32f4xx_hal_flash.c ****     status = FLASH_WaitForLastOperation((uint32_t)FLASH_TIMEOUT_VALUE);
 110              		.loc 1 211 0
 111 0076 4CF25030 		movw	r0, #50000
 112 007a FFF7FEFF 		bl	FLASH_WaitForLastOperation
 113 007e 0346     		mov	r3, r0
 114 0080 FB75     		strb	r3, [r7, #23]
 212:/home/vadimstupakov/Data/STM32/STM32Cube/Repository/STM32Cube_FW_F4_V1.10.0/Drivers/STM32F4xx_HAL_Driver/Src/stm32f4xx_hal_flash.c ****     
 213:/home/vadimstupakov/Data/STM32/STM32Cube/Repository/STM32Cube_FW_F4_V1.10.0/Drivers/STM32F4xx_HAL_Driver/Src/stm32f4xx_hal_flash.c ****     /* If the program operation is completed, disable the PG Bit */
 214:/home/vadimstupakov/Data/STM32/STM32Cube/Repository/STM32Cube_FW_F4_V1.10.0/Drivers/STM32F4xx_HAL_Driver/Src/stm32f4xx_hal_flash.c ****     FLASH->CR &= (~FLASH_CR_PG);  
 115              		.loc 1 214 0
 116 0082 084A     		ldr	r2, .L9+4
 117 0084 074B     		ldr	r3, .L9+4
 118 0086 1B69     		ldr	r3, [r3, #16]
 119 0088 23F00103 		bic	r3, r3, #1
 120 008c 1361     		str	r3, [r2, #16]
 121              	.L4:
 215:/home/vadimstupakov/Data/STM32/STM32Cube/Repository/STM32Cube_FW_F4_V1.10.0/Drivers/STM32F4xx_HAL_Driver/Src/stm32f4xx_hal_flash.c ****   }
 216:/home/vadimstupakov/Data/STM32/STM32Cube/Repository/STM32Cube_FW_F4_V1.10.0/Drivers/STM32F4xx_HAL_Driver/Src/stm32f4xx_hal_flash.c ****   
 217:/home/vadimstupakov/Data/STM32/STM32Cube/Repository/STM32Cube_FW_F4_V1.10.0/Drivers/STM32F4xx_HAL_Driver/Src/stm32f4xx_hal_flash.c ****   /* Process Unlocked */
 218:/home/vadimstupakov/Data/STM32/STM32Cube/Repository/STM32Cube_FW_F4_V1.10.0/Drivers/STM32F4xx_HAL_Driver/Src/stm32f4xx_hal_flash.c ****   __HAL_UNLOCK(&pFlash);
 122              		.loc 1 218 0
 123 008e 044B     		ldr	r3, .L9
 124 0090 0022     		movs	r2, #0
 125 0092 1A76     		strb	r2, [r3, #24]
ARM GAS  /tmp/ccqDtxhv.s 			page 7


 219:/home/vadimstupakov/Data/STM32/STM32Cube/Repository/STM32Cube_FW_F4_V1.10.0/Drivers/STM32F4xx_HAL_Driver/Src/stm32f4xx_hal_flash.c ****   
 220:/home/vadimstupakov/Data/STM32/STM32Cube/Repository/STM32Cube_FW_F4_V1.10.0/Drivers/STM32F4xx_HAL_Driver/Src/stm32f4xx_hal_flash.c ****   return status;
 126              		.loc 1 220 0
 127 0094 FB7D     		ldrb	r3, [r7, #23]	@ zero_extendqisi2
 128              	.L3:
 221:/home/vadimstupakov/Data/STM32/STM32Cube/Repository/STM32Cube_FW_F4_V1.10.0/Drivers/STM32F4xx_HAL_Driver/Src/stm32f4xx_hal_flash.c **** }
 129              		.loc 1 221 0
 130 0096 1846     		mov	r0, r3
 131 0098 1837     		adds	r7, r7, #24
 132              	.LCFI3:
 133              		.cfi_def_cfa_offset 8
 134 009a BD46     		mov	sp, r7
 135              	.LCFI4:
 136              		.cfi_def_cfa_register 13
 137              		@ sp needed
 138 009c 80BD     		pop	{r7, pc}
 139              	.L10:
 140 009e 00BF     		.align	2
 141              	.L9:
 142 00a0 00000000 		.word	pFlash
 143 00a4 003C0240 		.word	1073888256
 144              		.cfi_endproc
 145              	.LFE125:
 147              		.section	.text.HAL_FLASH_Program_IT,"ax",%progbits
 148              		.align	2
 149              		.global	HAL_FLASH_Program_IT
 150              		.thumb
 151              		.thumb_func
 153              	HAL_FLASH_Program_IT:
 154              	.LFB126:
 222:/home/vadimstupakov/Data/STM32/STM32Cube/Repository/STM32Cube_FW_F4_V1.10.0/Drivers/STM32F4xx_HAL_Driver/Src/stm32f4xx_hal_flash.c **** 
 223:/home/vadimstupakov/Data/STM32/STM32Cube/Repository/STM32Cube_FW_F4_V1.10.0/Drivers/STM32F4xx_HAL_Driver/Src/stm32f4xx_hal_flash.c **** /**
 224:/home/vadimstupakov/Data/STM32/STM32Cube/Repository/STM32Cube_FW_F4_V1.10.0/Drivers/STM32F4xx_HAL_Driver/Src/stm32f4xx_hal_flash.c ****   * @brief   Program byte, halfword, word or double word at a specified address  with interrupt ena
 225:/home/vadimstupakov/Data/STM32/STM32Cube/Repository/STM32Cube_FW_F4_V1.10.0/Drivers/STM32F4xx_HAL_Driver/Src/stm32f4xx_hal_flash.c ****   * @param  TypeProgram:  Indicate the way to program at a specified address.
 226:/home/vadimstupakov/Data/STM32/STM32Cube/Repository/STM32Cube_FW_F4_V1.10.0/Drivers/STM32F4xx_HAL_Driver/Src/stm32f4xx_hal_flash.c ****   *                           This parameter can be a value of @ref FLASH_Type_Program
 227:/home/vadimstupakov/Data/STM32/STM32Cube/Repository/STM32Cube_FW_F4_V1.10.0/Drivers/STM32F4xx_HAL_Driver/Src/stm32f4xx_hal_flash.c ****   * @param  Address:  specifies the address to be programmed.
 228:/home/vadimstupakov/Data/STM32/STM32Cube/Repository/STM32Cube_FW_F4_V1.10.0/Drivers/STM32F4xx_HAL_Driver/Src/stm32f4xx_hal_flash.c ****   * @param  Data: specifies the data to be programmed
 229:/home/vadimstupakov/Data/STM32/STM32Cube/Repository/STM32Cube_FW_F4_V1.10.0/Drivers/STM32F4xx_HAL_Driver/Src/stm32f4xx_hal_flash.c ****   * 
 230:/home/vadimstupakov/Data/STM32/STM32Cube/Repository/STM32Cube_FW_F4_V1.10.0/Drivers/STM32F4xx_HAL_Driver/Src/stm32f4xx_hal_flash.c ****   * @retval HAL Status
 231:/home/vadimstupakov/Data/STM32/STM32Cube/Repository/STM32Cube_FW_F4_V1.10.0/Drivers/STM32F4xx_HAL_Driver/Src/stm32f4xx_hal_flash.c ****   */
 232:/home/vadimstupakov/Data/STM32/STM32Cube/Repository/STM32Cube_FW_F4_V1.10.0/Drivers/STM32F4xx_HAL_Driver/Src/stm32f4xx_hal_flash.c **** HAL_StatusTypeDef HAL_FLASH_Program_IT(uint32_t TypeProgram, uint32_t Address, uint64_t Data)
 233:/home/vadimstupakov/Data/STM32/STM32Cube/Repository/STM32Cube_FW_F4_V1.10.0/Drivers/STM32F4xx_HAL_Driver/Src/stm32f4xx_hal_flash.c **** {
 155              		.loc 1 233 0
 156              		.cfi_startproc
 157              		@ args = 0, pretend = 0, frame = 24
 158              		@ frame_needed = 1, uses_anonymous_args = 0
 159 0000 80B5     		push	{r7, lr}
 160              	.LCFI5:
 161              		.cfi_def_cfa_offset 8
 162              		.cfi_offset 7, -8
 163              		.cfi_offset 14, -4
 164 0002 86B0     		sub	sp, sp, #24
 165              	.LCFI6:
 166              		.cfi_def_cfa_offset 32
 167 0004 00AF     		add	r7, sp, #0
 168              	.LCFI7:
 169              		.cfi_def_cfa_register 7
ARM GAS  /tmp/ccqDtxhv.s 			page 8


 170 0006 F860     		str	r0, [r7, #12]
 171 0008 B960     		str	r1, [r7, #8]
 172 000a C7E90023 		strd	r2, [r7]
 234:/home/vadimstupakov/Data/STM32/STM32Cube/Repository/STM32Cube_FW_F4_V1.10.0/Drivers/STM32F4xx_HAL_Driver/Src/stm32f4xx_hal_flash.c ****   HAL_StatusTypeDef status = HAL_OK;
 173              		.loc 1 234 0
 174 000e 0023     		movs	r3, #0
 175 0010 FB75     		strb	r3, [r7, #23]
 235:/home/vadimstupakov/Data/STM32/STM32Cube/Repository/STM32Cube_FW_F4_V1.10.0/Drivers/STM32F4xx_HAL_Driver/Src/stm32f4xx_hal_flash.c ****   
 236:/home/vadimstupakov/Data/STM32/STM32Cube/Repository/STM32Cube_FW_F4_V1.10.0/Drivers/STM32F4xx_HAL_Driver/Src/stm32f4xx_hal_flash.c ****   /* Process Locked */
 237:/home/vadimstupakov/Data/STM32/STM32Cube/Repository/STM32Cube_FW_F4_V1.10.0/Drivers/STM32F4xx_HAL_Driver/Src/stm32f4xx_hal_flash.c ****   __HAL_LOCK(&pFlash);
 176              		.loc 1 237 0
 177 0012 204B     		ldr	r3, .L18
 178 0014 1B7E     		ldrb	r3, [r3, #24]	@ zero_extendqisi2
 179 0016 012B     		cmp	r3, #1
 180 0018 01D1     		bne	.L12
 181              		.loc 1 237 0 is_stmt 0 discriminator 1
 182 001a 0223     		movs	r3, #2
 183 001c 35E0     		b	.L13
 184              	.L12:
 185              		.loc 1 237 0 discriminator 2
 186 001e 1D4B     		ldr	r3, .L18
 187 0020 0122     		movs	r2, #1
 188 0022 1A76     		strb	r2, [r3, #24]
 238:/home/vadimstupakov/Data/STM32/STM32Cube/Repository/STM32Cube_FW_F4_V1.10.0/Drivers/STM32F4xx_HAL_Driver/Src/stm32f4xx_hal_flash.c **** 
 239:/home/vadimstupakov/Data/STM32/STM32Cube/Repository/STM32Cube_FW_F4_V1.10.0/Drivers/STM32F4xx_HAL_Driver/Src/stm32f4xx_hal_flash.c ****   /* Check the parameters */
 240:/home/vadimstupakov/Data/STM32/STM32Cube/Repository/STM32Cube_FW_F4_V1.10.0/Drivers/STM32F4xx_HAL_Driver/Src/stm32f4xx_hal_flash.c ****   assert_param(IS_FLASH_TYPEPROGRAM(TypeProgram));
 241:/home/vadimstupakov/Data/STM32/STM32Cube/Repository/STM32Cube_FW_F4_V1.10.0/Drivers/STM32F4xx_HAL_Driver/Src/stm32f4xx_hal_flash.c **** 
 242:/home/vadimstupakov/Data/STM32/STM32Cube/Repository/STM32Cube_FW_F4_V1.10.0/Drivers/STM32F4xx_HAL_Driver/Src/stm32f4xx_hal_flash.c ****   /* Enable End of FLASH Operation interrupt */
 243:/home/vadimstupakov/Data/STM32/STM32Cube/Repository/STM32Cube_FW_F4_V1.10.0/Drivers/STM32F4xx_HAL_Driver/Src/stm32f4xx_hal_flash.c ****   __HAL_FLASH_ENABLE_IT(FLASH_IT_EOP);
 189              		.loc 1 243 0 is_stmt 1 discriminator 2
 190 0024 1C4A     		ldr	r2, .L18+4
 191 0026 1C4B     		ldr	r3, .L18+4
 192 0028 1B69     		ldr	r3, [r3, #16]
 193 002a 43F08073 		orr	r3, r3, #16777216
 194 002e 1361     		str	r3, [r2, #16]
 244:/home/vadimstupakov/Data/STM32/STM32Cube/Repository/STM32Cube_FW_F4_V1.10.0/Drivers/STM32F4xx_HAL_Driver/Src/stm32f4xx_hal_flash.c ****   
 245:/home/vadimstupakov/Data/STM32/STM32Cube/Repository/STM32Cube_FW_F4_V1.10.0/Drivers/STM32F4xx_HAL_Driver/Src/stm32f4xx_hal_flash.c ****   /* Enable Error source interrupt */
 246:/home/vadimstupakov/Data/STM32/STM32Cube/Repository/STM32Cube_FW_F4_V1.10.0/Drivers/STM32F4xx_HAL_Driver/Src/stm32f4xx_hal_flash.c ****   __HAL_FLASH_ENABLE_IT(FLASH_IT_ERR);
 195              		.loc 1 246 0 discriminator 2
 196 0030 194A     		ldr	r2, .L18+4
 197 0032 194B     		ldr	r3, .L18+4
 198 0034 1B69     		ldr	r3, [r3, #16]
 199 0036 43F00073 		orr	r3, r3, #33554432
 200 003a 1361     		str	r3, [r2, #16]
 247:/home/vadimstupakov/Data/STM32/STM32Cube/Repository/STM32Cube_FW_F4_V1.10.0/Drivers/STM32F4xx_HAL_Driver/Src/stm32f4xx_hal_flash.c **** 
 248:/home/vadimstupakov/Data/STM32/STM32Cube/Repository/STM32Cube_FW_F4_V1.10.0/Drivers/STM32F4xx_HAL_Driver/Src/stm32f4xx_hal_flash.c ****   pFlash.ProcedureOnGoing = FLASH_PROC_PROGRAM;
 201              		.loc 1 248 0 discriminator 2
 202 003c 154B     		ldr	r3, .L18
 203 003e 0322     		movs	r2, #3
 204 0040 1A70     		strb	r2, [r3]
 249:/home/vadimstupakov/Data/STM32/STM32Cube/Repository/STM32Cube_FW_F4_V1.10.0/Drivers/STM32F4xx_HAL_Driver/Src/stm32f4xx_hal_flash.c ****   pFlash.Address = Address;
 205              		.loc 1 249 0 discriminator 2
 206 0042 144A     		ldr	r2, .L18
 207 0044 BB68     		ldr	r3, [r7, #8]
 208 0046 5361     		str	r3, [r2, #20]
 250:/home/vadimstupakov/Data/STM32/STM32Cube/Repository/STM32Cube_FW_F4_V1.10.0/Drivers/STM32F4xx_HAL_Driver/Src/stm32f4xx_hal_flash.c **** 
 251:/home/vadimstupakov/Data/STM32/STM32Cube/Repository/STM32Cube_FW_F4_V1.10.0/Drivers/STM32F4xx_HAL_Driver/Src/stm32f4xx_hal_flash.c ****   if(TypeProgram == FLASH_TYPEPROGRAM_BYTE)
ARM GAS  /tmp/ccqDtxhv.s 			page 9


 209              		.loc 1 251 0 discriminator 2
 210 0048 FB68     		ldr	r3, [r7, #12]
 211 004a 002B     		cmp	r3, #0
 212 004c 05D1     		bne	.L14
 252:/home/vadimstupakov/Data/STM32/STM32Cube/Repository/STM32Cube_FW_F4_V1.10.0/Drivers/STM32F4xx_HAL_Driver/Src/stm32f4xx_hal_flash.c ****   {
 253:/home/vadimstupakov/Data/STM32/STM32Cube/Repository/STM32Cube_FW_F4_V1.10.0/Drivers/STM32F4xx_HAL_Driver/Src/stm32f4xx_hal_flash.c ****     /*Program byte (8-bit) at a specified address.*/
 254:/home/vadimstupakov/Data/STM32/STM32Cube/Repository/STM32Cube_FW_F4_V1.10.0/Drivers/STM32F4xx_HAL_Driver/Src/stm32f4xx_hal_flash.c ****       FLASH_Program_Byte(Address, (uint8_t) Data);
 213              		.loc 1 254 0
 214 004e 3B78     		ldrb	r3, [r7]	@ zero_extendqisi2
 215 0050 B868     		ldr	r0, [r7, #8]
 216 0052 1946     		mov	r1, r3
 217 0054 FFF7FEFF 		bl	FLASH_Program_Byte
 218 0058 16E0     		b	.L15
 219              	.L14:
 255:/home/vadimstupakov/Data/STM32/STM32Cube/Repository/STM32Cube_FW_F4_V1.10.0/Drivers/STM32F4xx_HAL_Driver/Src/stm32f4xx_hal_flash.c ****   }
 256:/home/vadimstupakov/Data/STM32/STM32Cube/Repository/STM32Cube_FW_F4_V1.10.0/Drivers/STM32F4xx_HAL_Driver/Src/stm32f4xx_hal_flash.c ****   else if(TypeProgram == FLASH_TYPEPROGRAM_HALFWORD)
 220              		.loc 1 256 0
 221 005a FB68     		ldr	r3, [r7, #12]
 222 005c 012B     		cmp	r3, #1
 223 005e 05D1     		bne	.L16
 257:/home/vadimstupakov/Data/STM32/STM32Cube/Repository/STM32Cube_FW_F4_V1.10.0/Drivers/STM32F4xx_HAL_Driver/Src/stm32f4xx_hal_flash.c ****   {
 258:/home/vadimstupakov/Data/STM32/STM32Cube/Repository/STM32Cube_FW_F4_V1.10.0/Drivers/STM32F4xx_HAL_Driver/Src/stm32f4xx_hal_flash.c ****     /*Program halfword (16-bit) at a specified address.*/
 259:/home/vadimstupakov/Data/STM32/STM32Cube/Repository/STM32Cube_FW_F4_V1.10.0/Drivers/STM32F4xx_HAL_Driver/Src/stm32f4xx_hal_flash.c ****     FLASH_Program_HalfWord(Address, (uint16_t) Data);
 224              		.loc 1 259 0
 225 0060 3B88     		ldrh	r3, [r7]
 226 0062 B868     		ldr	r0, [r7, #8]
 227 0064 1946     		mov	r1, r3
 228 0066 FFF7FEFF 		bl	FLASH_Program_HalfWord
 229 006a 0DE0     		b	.L15
 230              	.L16:
 260:/home/vadimstupakov/Data/STM32/STM32Cube/Repository/STM32Cube_FW_F4_V1.10.0/Drivers/STM32F4xx_HAL_Driver/Src/stm32f4xx_hal_flash.c ****   }
 261:/home/vadimstupakov/Data/STM32/STM32Cube/Repository/STM32Cube_FW_F4_V1.10.0/Drivers/STM32F4xx_HAL_Driver/Src/stm32f4xx_hal_flash.c ****   else if(TypeProgram == FLASH_TYPEPROGRAM_WORD)
 231              		.loc 1 261 0
 232 006c FB68     		ldr	r3, [r7, #12]
 233 006e 022B     		cmp	r3, #2
 234 0070 05D1     		bne	.L17
 262:/home/vadimstupakov/Data/STM32/STM32Cube/Repository/STM32Cube_FW_F4_V1.10.0/Drivers/STM32F4xx_HAL_Driver/Src/stm32f4xx_hal_flash.c ****   {
 263:/home/vadimstupakov/Data/STM32/STM32Cube/Repository/STM32Cube_FW_F4_V1.10.0/Drivers/STM32F4xx_HAL_Driver/Src/stm32f4xx_hal_flash.c ****     /*Program word (32-bit) at a specified address.*/
 264:/home/vadimstupakov/Data/STM32/STM32Cube/Repository/STM32Cube_FW_F4_V1.10.0/Drivers/STM32F4xx_HAL_Driver/Src/stm32f4xx_hal_flash.c ****     FLASH_Program_Word(Address, (uint32_t) Data);
 235              		.loc 1 264 0
 236 0072 3B68     		ldr	r3, [r7]
 237 0074 B868     		ldr	r0, [r7, #8]
 238 0076 1946     		mov	r1, r3
 239 0078 FFF7FEFF 		bl	FLASH_Program_Word
 240 007c 04E0     		b	.L15
 241              	.L17:
 265:/home/vadimstupakov/Data/STM32/STM32Cube/Repository/STM32Cube_FW_F4_V1.10.0/Drivers/STM32F4xx_HAL_Driver/Src/stm32f4xx_hal_flash.c ****   }
 266:/home/vadimstupakov/Data/STM32/STM32Cube/Repository/STM32Cube_FW_F4_V1.10.0/Drivers/STM32F4xx_HAL_Driver/Src/stm32f4xx_hal_flash.c ****   else
 267:/home/vadimstupakov/Data/STM32/STM32Cube/Repository/STM32Cube_FW_F4_V1.10.0/Drivers/STM32F4xx_HAL_Driver/Src/stm32f4xx_hal_flash.c ****   {
 268:/home/vadimstupakov/Data/STM32/STM32Cube/Repository/STM32Cube_FW_F4_V1.10.0/Drivers/STM32F4xx_HAL_Driver/Src/stm32f4xx_hal_flash.c ****     /*Program double word (64-bit) at a specified address.*/
 269:/home/vadimstupakov/Data/STM32/STM32Cube/Repository/STM32Cube_FW_F4_V1.10.0/Drivers/STM32F4xx_HAL_Driver/Src/stm32f4xx_hal_flash.c ****     FLASH_Program_DoubleWord(Address, Data);
 242              		.loc 1 269 0
 243 007e B868     		ldr	r0, [r7, #8]
 244 0080 D7E90023 		ldrd	r2, [r7]
 245 0084 FFF7FEFF 		bl	FLASH_Program_DoubleWord
 246              	.L15:
 270:/home/vadimstupakov/Data/STM32/STM32Cube/Repository/STM32Cube_FW_F4_V1.10.0/Drivers/STM32F4xx_HAL_Driver/Src/stm32f4xx_hal_flash.c ****   }
ARM GAS  /tmp/ccqDtxhv.s 			page 10


 271:/home/vadimstupakov/Data/STM32/STM32Cube/Repository/STM32Cube_FW_F4_V1.10.0/Drivers/STM32F4xx_HAL_Driver/Src/stm32f4xx_hal_flash.c **** 
 272:/home/vadimstupakov/Data/STM32/STM32Cube/Repository/STM32Cube_FW_F4_V1.10.0/Drivers/STM32F4xx_HAL_Driver/Src/stm32f4xx_hal_flash.c ****   return status;
 247              		.loc 1 272 0
 248 0088 FB7D     		ldrb	r3, [r7, #23]	@ zero_extendqisi2
 249              	.L13:
 273:/home/vadimstupakov/Data/STM32/STM32Cube/Repository/STM32Cube_FW_F4_V1.10.0/Drivers/STM32F4xx_HAL_Driver/Src/stm32f4xx_hal_flash.c **** }
 250              		.loc 1 273 0
 251 008a 1846     		mov	r0, r3
 252 008c 1837     		adds	r7, r7, #24
 253              	.LCFI8:
 254              		.cfi_def_cfa_offset 8
 255 008e BD46     		mov	sp, r7
 256              	.LCFI9:
 257              		.cfi_def_cfa_register 13
 258              		@ sp needed
 259 0090 80BD     		pop	{r7, pc}
 260              	.L19:
 261 0092 00BF     		.align	2
 262              	.L18:
 263 0094 00000000 		.word	pFlash
 264 0098 003C0240 		.word	1073888256
 265              		.cfi_endproc
 266              	.LFE126:
 268              		.section	.text.HAL_FLASH_IRQHandler,"ax",%progbits
 269              		.align	2
 270              		.global	HAL_FLASH_IRQHandler
 271              		.thumb
 272              		.thumb_func
 274              	HAL_FLASH_IRQHandler:
 275              	.LFB127:
 274:/home/vadimstupakov/Data/STM32/STM32Cube/Repository/STM32Cube_FW_F4_V1.10.0/Drivers/STM32F4xx_HAL_Driver/Src/stm32f4xx_hal_flash.c **** 
 275:/home/vadimstupakov/Data/STM32/STM32Cube/Repository/STM32Cube_FW_F4_V1.10.0/Drivers/STM32F4xx_HAL_Driver/Src/stm32f4xx_hal_flash.c **** /**
 276:/home/vadimstupakov/Data/STM32/STM32Cube/Repository/STM32Cube_FW_F4_V1.10.0/Drivers/STM32F4xx_HAL_Driver/Src/stm32f4xx_hal_flash.c ****   * @brief This function handles FLASH interrupt request.
 277:/home/vadimstupakov/Data/STM32/STM32Cube/Repository/STM32Cube_FW_F4_V1.10.0/Drivers/STM32F4xx_HAL_Driver/Src/stm32f4xx_hal_flash.c ****   * @retval None
 278:/home/vadimstupakov/Data/STM32/STM32Cube/Repository/STM32Cube_FW_F4_V1.10.0/Drivers/STM32F4xx_HAL_Driver/Src/stm32f4xx_hal_flash.c ****   */
 279:/home/vadimstupakov/Data/STM32/STM32Cube/Repository/STM32Cube_FW_F4_V1.10.0/Drivers/STM32F4xx_HAL_Driver/Src/stm32f4xx_hal_flash.c **** void HAL_FLASH_IRQHandler(void)
 280:/home/vadimstupakov/Data/STM32/STM32Cube/Repository/STM32Cube_FW_F4_V1.10.0/Drivers/STM32F4xx_HAL_Driver/Src/stm32f4xx_hal_flash.c **** {
 276              		.loc 1 280 0
 277              		.cfi_startproc
 278              		@ args = 0, pretend = 0, frame = 8
 279              		@ frame_needed = 1, uses_anonymous_args = 0
 280 0000 80B5     		push	{r7, lr}
 281              	.LCFI10:
 282              		.cfi_def_cfa_offset 8
 283              		.cfi_offset 7, -8
 284              		.cfi_offset 14, -4
 285 0002 82B0     		sub	sp, sp, #8
 286              	.LCFI11:
 287              		.cfi_def_cfa_offset 16
 288 0004 00AF     		add	r7, sp, #0
 289              	.LCFI12:
 290              		.cfi_def_cfa_register 7
 281:/home/vadimstupakov/Data/STM32/STM32Cube/Repository/STM32Cube_FW_F4_V1.10.0/Drivers/STM32F4xx_HAL_Driver/Src/stm32f4xx_hal_flash.c ****   uint32_t addresstmp = 0;
 291              		.loc 1 281 0
 292 0006 0023     		movs	r3, #0
 293 0008 7B60     		str	r3, [r7, #4]
 282:/home/vadimstupakov/Data/STM32/STM32Cube/Repository/STM32Cube_FW_F4_V1.10.0/Drivers/STM32F4xx_HAL_Driver/Src/stm32f4xx_hal_flash.c ****   
ARM GAS  /tmp/ccqDtxhv.s 			page 11


 283:/home/vadimstupakov/Data/STM32/STM32Cube/Repository/STM32Cube_FW_F4_V1.10.0/Drivers/STM32F4xx_HAL_Driver/Src/stm32f4xx_hal_flash.c ****   /* Check FLASH operation error flags */
 284:/home/vadimstupakov/Data/STM32/STM32Cube/Repository/STM32Cube_FW_F4_V1.10.0/Drivers/STM32F4xx_HAL_Driver/Src/stm32f4xx_hal_flash.c ****   if(__HAL_FLASH_GET_FLAG((FLASH_FLAG_OPERR | FLASH_FLAG_WRPERR | FLASH_FLAG_PGAERR | \
 294              		.loc 1 284 0
 295 000a 4B4B     		ldr	r3, .L32
 296 000c DB68     		ldr	r3, [r3, #12]
 297 000e 03F4F973 		and	r3, r3, #498
 298 0012 B3F5F97F 		cmp	r3, #498
 299 0016 20D1     		bne	.L21
 285:/home/vadimstupakov/Data/STM32/STM32Cube/Repository/STM32Cube_FW_F4_V1.10.0/Drivers/STM32F4xx_HAL_Driver/Src/stm32f4xx_hal_flash.c ****     FLASH_FLAG_PGPERR | FLASH_FLAG_PGSERR | FLASH_FLAG_RDERR)) != RESET)
 286:/home/vadimstupakov/Data/STM32/STM32Cube/Repository/STM32Cube_FW_F4_V1.10.0/Drivers/STM32F4xx_HAL_Driver/Src/stm32f4xx_hal_flash.c ****   {
 287:/home/vadimstupakov/Data/STM32/STM32Cube/Repository/STM32Cube_FW_F4_V1.10.0/Drivers/STM32F4xx_HAL_Driver/Src/stm32f4xx_hal_flash.c ****     if(pFlash.ProcedureOnGoing == FLASH_PROC_SECTERASE)
 300              		.loc 1 287 0
 301 0018 484B     		ldr	r3, .L32+4
 302 001a 1B78     		ldrb	r3, [r3]
 303 001c DBB2     		uxtb	r3, r3
 304 001e 012B     		cmp	r3, #1
 305 0020 07D1     		bne	.L22
 288:/home/vadimstupakov/Data/STM32/STM32Cube/Repository/STM32Cube_FW_F4_V1.10.0/Drivers/STM32F4xx_HAL_Driver/Src/stm32f4xx_hal_flash.c ****     {
 289:/home/vadimstupakov/Data/STM32/STM32Cube/Repository/STM32Cube_FW_F4_V1.10.0/Drivers/STM32F4xx_HAL_Driver/Src/stm32f4xx_hal_flash.c ****       /*return the faulty sector*/
 290:/home/vadimstupakov/Data/STM32/STM32Cube/Repository/STM32Cube_FW_F4_V1.10.0/Drivers/STM32F4xx_HAL_Driver/Src/stm32f4xx_hal_flash.c ****       addresstmp = pFlash.Sector;
 306              		.loc 1 290 0
 307 0022 464B     		ldr	r3, .L32+4
 308 0024 DB68     		ldr	r3, [r3, #12]
 309 0026 7B60     		str	r3, [r7, #4]
 291:/home/vadimstupakov/Data/STM32/STM32Cube/Repository/STM32Cube_FW_F4_V1.10.0/Drivers/STM32F4xx_HAL_Driver/Src/stm32f4xx_hal_flash.c ****       pFlash.Sector = 0xFFFFFFFF;
 310              		.loc 1 291 0
 311 0028 444B     		ldr	r3, .L32+4
 312 002a 4FF0FF32 		mov	r2, #-1
 313 002e DA60     		str	r2, [r3, #12]
 314 0030 0BE0     		b	.L23
 315              	.L22:
 292:/home/vadimstupakov/Data/STM32/STM32Cube/Repository/STM32Cube_FW_F4_V1.10.0/Drivers/STM32F4xx_HAL_Driver/Src/stm32f4xx_hal_flash.c ****     }
 293:/home/vadimstupakov/Data/STM32/STM32Cube/Repository/STM32Cube_FW_F4_V1.10.0/Drivers/STM32F4xx_HAL_Driver/Src/stm32f4xx_hal_flash.c ****     else if(pFlash.ProcedureOnGoing == FLASH_PROC_MASSERASE)
 316              		.loc 1 293 0
 317 0032 424B     		ldr	r3, .L32+4
 318 0034 1B78     		ldrb	r3, [r3]
 319 0036 DBB2     		uxtb	r3, r3
 320 0038 022B     		cmp	r3, #2
 321 003a 03D1     		bne	.L24
 294:/home/vadimstupakov/Data/STM32/STM32Cube/Repository/STM32Cube_FW_F4_V1.10.0/Drivers/STM32F4xx_HAL_Driver/Src/stm32f4xx_hal_flash.c ****     {
 295:/home/vadimstupakov/Data/STM32/STM32Cube/Repository/STM32Cube_FW_F4_V1.10.0/Drivers/STM32F4xx_HAL_Driver/Src/stm32f4xx_hal_flash.c ****       /*return the faulty bank*/
 296:/home/vadimstupakov/Data/STM32/STM32Cube/Repository/STM32Cube_FW_F4_V1.10.0/Drivers/STM32F4xx_HAL_Driver/Src/stm32f4xx_hal_flash.c ****       addresstmp = pFlash.Bank;
 322              		.loc 1 296 0
 323 003c 3F4B     		ldr	r3, .L32+4
 324 003e 1B69     		ldr	r3, [r3, #16]
 325 0040 7B60     		str	r3, [r7, #4]
 326 0042 02E0     		b	.L23
 327              	.L24:
 297:/home/vadimstupakov/Data/STM32/STM32Cube/Repository/STM32Cube_FW_F4_V1.10.0/Drivers/STM32F4xx_HAL_Driver/Src/stm32f4xx_hal_flash.c ****     }
 298:/home/vadimstupakov/Data/STM32/STM32Cube/Repository/STM32Cube_FW_F4_V1.10.0/Drivers/STM32F4xx_HAL_Driver/Src/stm32f4xx_hal_flash.c ****     else
 299:/home/vadimstupakov/Data/STM32/STM32Cube/Repository/STM32Cube_FW_F4_V1.10.0/Drivers/STM32F4xx_HAL_Driver/Src/stm32f4xx_hal_flash.c ****     {
 300:/home/vadimstupakov/Data/STM32/STM32Cube/Repository/STM32Cube_FW_F4_V1.10.0/Drivers/STM32F4xx_HAL_Driver/Src/stm32f4xx_hal_flash.c ****       /*return the faulty address*/
 301:/home/vadimstupakov/Data/STM32/STM32Cube/Repository/STM32Cube_FW_F4_V1.10.0/Drivers/STM32F4xx_HAL_Driver/Src/stm32f4xx_hal_flash.c ****       addresstmp = pFlash.Address;
 328              		.loc 1 301 0
 329 0044 3D4B     		ldr	r3, .L32+4
 330 0046 5B69     		ldr	r3, [r3, #20]
 331 0048 7B60     		str	r3, [r7, #4]
ARM GAS  /tmp/ccqDtxhv.s 			page 12


 332              	.L23:
 302:/home/vadimstupakov/Data/STM32/STM32Cube/Repository/STM32Cube_FW_F4_V1.10.0/Drivers/STM32F4xx_HAL_Driver/Src/stm32f4xx_hal_flash.c ****     }
 303:/home/vadimstupakov/Data/STM32/STM32Cube/Repository/STM32Cube_FW_F4_V1.10.0/Drivers/STM32F4xx_HAL_Driver/Src/stm32f4xx_hal_flash.c ****     
 304:/home/vadimstupakov/Data/STM32/STM32Cube/Repository/STM32Cube_FW_F4_V1.10.0/Drivers/STM32F4xx_HAL_Driver/Src/stm32f4xx_hal_flash.c ****     /*Save the Error code*/
 305:/home/vadimstupakov/Data/STM32/STM32Cube/Repository/STM32Cube_FW_F4_V1.10.0/Drivers/STM32F4xx_HAL_Driver/Src/stm32f4xx_hal_flash.c ****     FLASH_SetErrorCode();
 333              		.loc 1 305 0
 334 004a FFF7FEFF 		bl	FLASH_SetErrorCode
 306:/home/vadimstupakov/Data/STM32/STM32Cube/Repository/STM32Cube_FW_F4_V1.10.0/Drivers/STM32F4xx_HAL_Driver/Src/stm32f4xx_hal_flash.c ****     
 307:/home/vadimstupakov/Data/STM32/STM32Cube/Repository/STM32Cube_FW_F4_V1.10.0/Drivers/STM32F4xx_HAL_Driver/Src/stm32f4xx_hal_flash.c ****     /* FLASH error interrupt user callback */
 308:/home/vadimstupakov/Data/STM32/STM32Cube/Repository/STM32Cube_FW_F4_V1.10.0/Drivers/STM32F4xx_HAL_Driver/Src/stm32f4xx_hal_flash.c ****     HAL_FLASH_OperationErrorCallback(addresstmp);
 335              		.loc 1 308 0
 336 004e 7868     		ldr	r0, [r7, #4]
 337 0050 FFF7FEFF 		bl	HAL_FLASH_OperationErrorCallback
 309:/home/vadimstupakov/Data/STM32/STM32Cube/Repository/STM32Cube_FW_F4_V1.10.0/Drivers/STM32F4xx_HAL_Driver/Src/stm32f4xx_hal_flash.c ****     
 310:/home/vadimstupakov/Data/STM32/STM32Cube/Repository/STM32Cube_FW_F4_V1.10.0/Drivers/STM32F4xx_HAL_Driver/Src/stm32f4xx_hal_flash.c ****     /*Stop the procedure ongoing*/
 311:/home/vadimstupakov/Data/STM32/STM32Cube/Repository/STM32Cube_FW_F4_V1.10.0/Drivers/STM32F4xx_HAL_Driver/Src/stm32f4xx_hal_flash.c ****     pFlash.ProcedureOnGoing = FLASH_PROC_NONE;
 338              		.loc 1 311 0
 339 0054 394B     		ldr	r3, .L32+4
 340 0056 0022     		movs	r2, #0
 341 0058 1A70     		strb	r2, [r3]
 342              	.L21:
 312:/home/vadimstupakov/Data/STM32/STM32Cube/Repository/STM32Cube_FW_F4_V1.10.0/Drivers/STM32F4xx_HAL_Driver/Src/stm32f4xx_hal_flash.c ****   }
 313:/home/vadimstupakov/Data/STM32/STM32Cube/Repository/STM32Cube_FW_F4_V1.10.0/Drivers/STM32F4xx_HAL_Driver/Src/stm32f4xx_hal_flash.c ****   
 314:/home/vadimstupakov/Data/STM32/STM32Cube/Repository/STM32Cube_FW_F4_V1.10.0/Drivers/STM32F4xx_HAL_Driver/Src/stm32f4xx_hal_flash.c ****   /* Check FLASH End of Operation flag  */
 315:/home/vadimstupakov/Data/STM32/STM32Cube/Repository/STM32Cube_FW_F4_V1.10.0/Drivers/STM32F4xx_HAL_Driver/Src/stm32f4xx_hal_flash.c ****   if(__HAL_FLASH_GET_FLAG(FLASH_FLAG_EOP) != RESET)
 343              		.loc 1 315 0
 344 005a 374B     		ldr	r3, .L32
 345 005c DB68     		ldr	r3, [r3, #12]
 346 005e 03F00103 		and	r3, r3, #1
 347 0062 002B     		cmp	r3, #0
 348 0064 4AD0     		beq	.L25
 316:/home/vadimstupakov/Data/STM32/STM32Cube/Repository/STM32Cube_FW_F4_V1.10.0/Drivers/STM32F4xx_HAL_Driver/Src/stm32f4xx_hal_flash.c ****   {
 317:/home/vadimstupakov/Data/STM32/STM32Cube/Repository/STM32Cube_FW_F4_V1.10.0/Drivers/STM32F4xx_HAL_Driver/Src/stm32f4xx_hal_flash.c ****     /* Clear FLASH End of Operation pending bit */
 318:/home/vadimstupakov/Data/STM32/STM32Cube/Repository/STM32Cube_FW_F4_V1.10.0/Drivers/STM32F4xx_HAL_Driver/Src/stm32f4xx_hal_flash.c ****     __HAL_FLASH_CLEAR_FLAG(FLASH_FLAG_EOP);
 349              		.loc 1 318 0
 350 0066 344B     		ldr	r3, .L32
 351 0068 0122     		movs	r2, #1
 352 006a DA60     		str	r2, [r3, #12]
 319:/home/vadimstupakov/Data/STM32/STM32Cube/Repository/STM32Cube_FW_F4_V1.10.0/Drivers/STM32F4xx_HAL_Driver/Src/stm32f4xx_hal_flash.c ****     
 320:/home/vadimstupakov/Data/STM32/STM32Cube/Repository/STM32Cube_FW_F4_V1.10.0/Drivers/STM32F4xx_HAL_Driver/Src/stm32f4xx_hal_flash.c ****     if(pFlash.ProcedureOnGoing == FLASH_PROC_SECTERASE)
 353              		.loc 1 320 0
 354 006c 334B     		ldr	r3, .L32+4
 355 006e 1B78     		ldrb	r3, [r3]
 356 0070 DBB2     		uxtb	r3, r3
 357 0072 012B     		cmp	r3, #1
 358 0074 2DD1     		bne	.L26
 321:/home/vadimstupakov/Data/STM32/STM32Cube/Repository/STM32Cube_FW_F4_V1.10.0/Drivers/STM32F4xx_HAL_Driver/Src/stm32f4xx_hal_flash.c ****     {
 322:/home/vadimstupakov/Data/STM32/STM32Cube/Repository/STM32Cube_FW_F4_V1.10.0/Drivers/STM32F4xx_HAL_Driver/Src/stm32f4xx_hal_flash.c ****       /*Nb of sector to erased can be decreased*/
 323:/home/vadimstupakov/Data/STM32/STM32Cube/Repository/STM32Cube_FW_F4_V1.10.0/Drivers/STM32F4xx_HAL_Driver/Src/stm32f4xx_hal_flash.c ****       pFlash.NbSectorsToErase--;
 359              		.loc 1 323 0
 360 0076 314B     		ldr	r3, .L32+4
 361 0078 5B68     		ldr	r3, [r3, #4]
 362 007a 013B     		subs	r3, r3, #1
 363 007c 2F4A     		ldr	r2, .L32+4
 364 007e 5360     		str	r3, [r2, #4]
 324:/home/vadimstupakov/Data/STM32/STM32Cube/Repository/STM32Cube_FW_F4_V1.10.0/Drivers/STM32F4xx_HAL_Driver/Src/stm32f4xx_hal_flash.c ****       
 325:/home/vadimstupakov/Data/STM32/STM32Cube/Repository/STM32Cube_FW_F4_V1.10.0/Drivers/STM32F4xx_HAL_Driver/Src/stm32f4xx_hal_flash.c ****       /* Check if there are still sectors to erase*/
ARM GAS  /tmp/ccqDtxhv.s 			page 13


 326:/home/vadimstupakov/Data/STM32/STM32Cube/Repository/STM32Cube_FW_F4_V1.10.0/Drivers/STM32F4xx_HAL_Driver/Src/stm32f4xx_hal_flash.c ****       if(pFlash.NbSectorsToErase != 0)
 365              		.loc 1 326 0
 366 0080 2E4B     		ldr	r3, .L32+4
 367 0082 5B68     		ldr	r3, [r3, #4]
 368 0084 002B     		cmp	r3, #0
 369 0086 15D0     		beq	.L27
 327:/home/vadimstupakov/Data/STM32/STM32Cube/Repository/STM32Cube_FW_F4_V1.10.0/Drivers/STM32F4xx_HAL_Driver/Src/stm32f4xx_hal_flash.c ****       {
 328:/home/vadimstupakov/Data/STM32/STM32Cube/Repository/STM32Cube_FW_F4_V1.10.0/Drivers/STM32F4xx_HAL_Driver/Src/stm32f4xx_hal_flash.c ****         addresstmp = pFlash.Sector;
 370              		.loc 1 328 0
 371 0088 2C4B     		ldr	r3, .L32+4
 372 008a DB68     		ldr	r3, [r3, #12]
 373 008c 7B60     		str	r3, [r7, #4]
 329:/home/vadimstupakov/Data/STM32/STM32Cube/Repository/STM32Cube_FW_F4_V1.10.0/Drivers/STM32F4xx_HAL_Driver/Src/stm32f4xx_hal_flash.c ****         /*Indicate user which sector has been erased*/
 330:/home/vadimstupakov/Data/STM32/STM32Cube/Repository/STM32Cube_FW_F4_V1.10.0/Drivers/STM32F4xx_HAL_Driver/Src/stm32f4xx_hal_flash.c ****         HAL_FLASH_EndOfOperationCallback(addresstmp);
 374              		.loc 1 330 0
 375 008e 7868     		ldr	r0, [r7, #4]
 376 0090 FFF7FEFF 		bl	HAL_FLASH_EndOfOperationCallback
 331:/home/vadimstupakov/Data/STM32/STM32Cube/Repository/STM32Cube_FW_F4_V1.10.0/Drivers/STM32F4xx_HAL_Driver/Src/stm32f4xx_hal_flash.c ****         
 332:/home/vadimstupakov/Data/STM32/STM32Cube/Repository/STM32Cube_FW_F4_V1.10.0/Drivers/STM32F4xx_HAL_Driver/Src/stm32f4xx_hal_flash.c ****         /*Increment sector number*/
 333:/home/vadimstupakov/Data/STM32/STM32Cube/Repository/STM32Cube_FW_F4_V1.10.0/Drivers/STM32F4xx_HAL_Driver/Src/stm32f4xx_hal_flash.c ****         pFlash.Sector++;
 377              		.loc 1 333 0
 378 0094 294B     		ldr	r3, .L32+4
 379 0096 DB68     		ldr	r3, [r3, #12]
 380 0098 0133     		adds	r3, r3, #1
 381 009a 284A     		ldr	r2, .L32+4
 382 009c D360     		str	r3, [r2, #12]
 334:/home/vadimstupakov/Data/STM32/STM32Cube/Repository/STM32Cube_FW_F4_V1.10.0/Drivers/STM32F4xx_HAL_Driver/Src/stm32f4xx_hal_flash.c ****         addresstmp = pFlash.Sector;
 383              		.loc 1 334 0
 384 009e 274B     		ldr	r3, .L32+4
 385 00a0 DB68     		ldr	r3, [r3, #12]
 386 00a2 7B60     		str	r3, [r7, #4]
 335:/home/vadimstupakov/Data/STM32/STM32Cube/Repository/STM32Cube_FW_F4_V1.10.0/Drivers/STM32F4xx_HAL_Driver/Src/stm32f4xx_hal_flash.c ****         FLASH_Erase_Sector(addresstmp, pFlash.VoltageForErase);
 387              		.loc 1 335 0
 388 00a4 254B     		ldr	r3, .L32+4
 389 00a6 1B7A     		ldrb	r3, [r3, #8]
 390 00a8 DBB2     		uxtb	r3, r3
 391 00aa 7868     		ldr	r0, [r7, #4]
 392 00ac 1946     		mov	r1, r3
 393 00ae FFF7FEFF 		bl	FLASH_Erase_Sector
 394 00b2 23E0     		b	.L25
 395              	.L27:
 336:/home/vadimstupakov/Data/STM32/STM32Cube/Repository/STM32Cube_FW_F4_V1.10.0/Drivers/STM32F4xx_HAL_Driver/Src/stm32f4xx_hal_flash.c ****       }
 337:/home/vadimstupakov/Data/STM32/STM32Cube/Repository/STM32Cube_FW_F4_V1.10.0/Drivers/STM32F4xx_HAL_Driver/Src/stm32f4xx_hal_flash.c ****       else
 338:/home/vadimstupakov/Data/STM32/STM32Cube/Repository/STM32Cube_FW_F4_V1.10.0/Drivers/STM32F4xx_HAL_Driver/Src/stm32f4xx_hal_flash.c ****       {
 339:/home/vadimstupakov/Data/STM32/STM32Cube/Repository/STM32Cube_FW_F4_V1.10.0/Drivers/STM32F4xx_HAL_Driver/Src/stm32f4xx_hal_flash.c ****         /*No more sectors to Erase, user callback can be called.*/
 340:/home/vadimstupakov/Data/STM32/STM32Cube/Repository/STM32Cube_FW_F4_V1.10.0/Drivers/STM32F4xx_HAL_Driver/Src/stm32f4xx_hal_flash.c ****         /*Reset Sector and stop Erase sectors procedure*/
 341:/home/vadimstupakov/Data/STM32/STM32Cube/Repository/STM32Cube_FW_F4_V1.10.0/Drivers/STM32F4xx_HAL_Driver/Src/stm32f4xx_hal_flash.c ****         pFlash.Sector = addresstmp = 0xFFFFFFFF;
 396              		.loc 1 341 0
 397 00b4 4FF0FF33 		mov	r3, #-1
 398 00b8 7B60     		str	r3, [r7, #4]
 399 00ba 204A     		ldr	r2, .L32+4
 400 00bc 7B68     		ldr	r3, [r7, #4]
 401 00be D360     		str	r3, [r2, #12]
 342:/home/vadimstupakov/Data/STM32/STM32Cube/Repository/STM32Cube_FW_F4_V1.10.0/Drivers/STM32F4xx_HAL_Driver/Src/stm32f4xx_hal_flash.c ****         pFlash.ProcedureOnGoing = FLASH_PROC_NONE;
 402              		.loc 1 342 0
 403 00c0 1E4B     		ldr	r3, .L32+4
 404 00c2 0022     		movs	r2, #0
ARM GAS  /tmp/ccqDtxhv.s 			page 14


 405 00c4 1A70     		strb	r2, [r3]
 343:/home/vadimstupakov/Data/STM32/STM32Cube/Repository/STM32Cube_FW_F4_V1.10.0/Drivers/STM32F4xx_HAL_Driver/Src/stm32f4xx_hal_flash.c ****         
 344:/home/vadimstupakov/Data/STM32/STM32Cube/Repository/STM32Cube_FW_F4_V1.10.0/Drivers/STM32F4xx_HAL_Driver/Src/stm32f4xx_hal_flash.c ****         /* Flush the caches to be sure of the data consistency */
 345:/home/vadimstupakov/Data/STM32/STM32Cube/Repository/STM32Cube_FW_F4_V1.10.0/Drivers/STM32F4xx_HAL_Driver/Src/stm32f4xx_hal_flash.c ****         FLASH_FlushCaches() ;
 406              		.loc 1 345 0
 407 00c6 FFF7FEFF 		bl	FLASH_FlushCaches
 346:/home/vadimstupakov/Data/STM32/STM32Cube/Repository/STM32Cube_FW_F4_V1.10.0/Drivers/STM32F4xx_HAL_Driver/Src/stm32f4xx_hal_flash.c ****                 
 347:/home/vadimstupakov/Data/STM32/STM32Cube/Repository/STM32Cube_FW_F4_V1.10.0/Drivers/STM32F4xx_HAL_Driver/Src/stm32f4xx_hal_flash.c ****         /* FLASH EOP interrupt user callback */
 348:/home/vadimstupakov/Data/STM32/STM32Cube/Repository/STM32Cube_FW_F4_V1.10.0/Drivers/STM32F4xx_HAL_Driver/Src/stm32f4xx_hal_flash.c ****         HAL_FLASH_EndOfOperationCallback(addresstmp);
 408              		.loc 1 348 0
 409 00ca 7868     		ldr	r0, [r7, #4]
 410 00cc FFF7FEFF 		bl	HAL_FLASH_EndOfOperationCallback
 411 00d0 14E0     		b	.L25
 412              	.L26:
 349:/home/vadimstupakov/Data/STM32/STM32Cube/Repository/STM32Cube_FW_F4_V1.10.0/Drivers/STM32F4xx_HAL_Driver/Src/stm32f4xx_hal_flash.c ****       }
 350:/home/vadimstupakov/Data/STM32/STM32Cube/Repository/STM32Cube_FW_F4_V1.10.0/Drivers/STM32F4xx_HAL_Driver/Src/stm32f4xx_hal_flash.c ****     }
 351:/home/vadimstupakov/Data/STM32/STM32Cube/Repository/STM32Cube_FW_F4_V1.10.0/Drivers/STM32F4xx_HAL_Driver/Src/stm32f4xx_hal_flash.c ****     else 
 352:/home/vadimstupakov/Data/STM32/STM32Cube/Repository/STM32Cube_FW_F4_V1.10.0/Drivers/STM32F4xx_HAL_Driver/Src/stm32f4xx_hal_flash.c ****     {
 353:/home/vadimstupakov/Data/STM32/STM32Cube/Repository/STM32Cube_FW_F4_V1.10.0/Drivers/STM32F4xx_HAL_Driver/Src/stm32f4xx_hal_flash.c ****       if(pFlash.ProcedureOnGoing == FLASH_PROC_MASSERASE) 
 413              		.loc 1 353 0
 414 00d2 1A4B     		ldr	r3, .L32+4
 415 00d4 1B78     		ldrb	r3, [r3]
 416 00d6 DBB2     		uxtb	r3, r3
 417 00d8 022B     		cmp	r3, #2
 418 00da 07D1     		bne	.L29
 354:/home/vadimstupakov/Data/STM32/STM32Cube/Repository/STM32Cube_FW_F4_V1.10.0/Drivers/STM32F4xx_HAL_Driver/Src/stm32f4xx_hal_flash.c ****       {
 355:/home/vadimstupakov/Data/STM32/STM32Cube/Repository/STM32Cube_FW_F4_V1.10.0/Drivers/STM32F4xx_HAL_Driver/Src/stm32f4xx_hal_flash.c ****         /* MassErase ended. Return the selected bank */
 356:/home/vadimstupakov/Data/STM32/STM32Cube/Repository/STM32Cube_FW_F4_V1.10.0/Drivers/STM32F4xx_HAL_Driver/Src/stm32f4xx_hal_flash.c ****         /* Flush the caches to be sure of the data consistency */
 357:/home/vadimstupakov/Data/STM32/STM32Cube/Repository/STM32Cube_FW_F4_V1.10.0/Drivers/STM32F4xx_HAL_Driver/Src/stm32f4xx_hal_flash.c ****         FLASH_FlushCaches() ;
 419              		.loc 1 357 0
 420 00dc FFF7FEFF 		bl	FLASH_FlushCaches
 358:/home/vadimstupakov/Data/STM32/STM32Cube/Repository/STM32Cube_FW_F4_V1.10.0/Drivers/STM32F4xx_HAL_Driver/Src/stm32f4xx_hal_flash.c **** 
 359:/home/vadimstupakov/Data/STM32/STM32Cube/Repository/STM32Cube_FW_F4_V1.10.0/Drivers/STM32F4xx_HAL_Driver/Src/stm32f4xx_hal_flash.c ****         /* FLASH EOP interrupt user callback */
 360:/home/vadimstupakov/Data/STM32/STM32Cube/Repository/STM32Cube_FW_F4_V1.10.0/Drivers/STM32F4xx_HAL_Driver/Src/stm32f4xx_hal_flash.c ****         HAL_FLASH_EndOfOperationCallback(pFlash.Bank);
 421              		.loc 1 360 0
 422 00e0 164B     		ldr	r3, .L32+4
 423 00e2 1B69     		ldr	r3, [r3, #16]
 424 00e4 1846     		mov	r0, r3
 425 00e6 FFF7FEFF 		bl	HAL_FLASH_EndOfOperationCallback
 426 00ea 04E0     		b	.L30
 427              	.L29:
 361:/home/vadimstupakov/Data/STM32/STM32Cube/Repository/STM32Cube_FW_F4_V1.10.0/Drivers/STM32F4xx_HAL_Driver/Src/stm32f4xx_hal_flash.c ****       }
 362:/home/vadimstupakov/Data/STM32/STM32Cube/Repository/STM32Cube_FW_F4_V1.10.0/Drivers/STM32F4xx_HAL_Driver/Src/stm32f4xx_hal_flash.c ****       else
 363:/home/vadimstupakov/Data/STM32/STM32Cube/Repository/STM32Cube_FW_F4_V1.10.0/Drivers/STM32F4xx_HAL_Driver/Src/stm32f4xx_hal_flash.c ****       {
 364:/home/vadimstupakov/Data/STM32/STM32Cube/Repository/STM32Cube_FW_F4_V1.10.0/Drivers/STM32F4xx_HAL_Driver/Src/stm32f4xx_hal_flash.c ****         /*Program ended. Return the selected address*/
 365:/home/vadimstupakov/Data/STM32/STM32Cube/Repository/STM32Cube_FW_F4_V1.10.0/Drivers/STM32F4xx_HAL_Driver/Src/stm32f4xx_hal_flash.c ****         /* FLASH EOP interrupt user callback */
 366:/home/vadimstupakov/Data/STM32/STM32Cube/Repository/STM32Cube_FW_F4_V1.10.0/Drivers/STM32F4xx_HAL_Driver/Src/stm32f4xx_hal_flash.c ****         HAL_FLASH_EndOfOperationCallback(pFlash.Address);
 428              		.loc 1 366 0
 429 00ec 134B     		ldr	r3, .L32+4
 430 00ee 5B69     		ldr	r3, [r3, #20]
 431 00f0 1846     		mov	r0, r3
 432 00f2 FFF7FEFF 		bl	HAL_FLASH_EndOfOperationCallback
 433              	.L30:
 367:/home/vadimstupakov/Data/STM32/STM32Cube/Repository/STM32Cube_FW_F4_V1.10.0/Drivers/STM32F4xx_HAL_Driver/Src/stm32f4xx_hal_flash.c ****       }
 368:/home/vadimstupakov/Data/STM32/STM32Cube/Repository/STM32Cube_FW_F4_V1.10.0/Drivers/STM32F4xx_HAL_Driver/Src/stm32f4xx_hal_flash.c ****       pFlash.ProcedureOnGoing = FLASH_PROC_NONE;
 434              		.loc 1 368 0
 435 00f6 114B     		ldr	r3, .L32+4
ARM GAS  /tmp/ccqDtxhv.s 			page 15


 436 00f8 0022     		movs	r2, #0
 437 00fa 1A70     		strb	r2, [r3]
 438              	.L25:
 369:/home/vadimstupakov/Data/STM32/STM32Cube/Repository/STM32Cube_FW_F4_V1.10.0/Drivers/STM32F4xx_HAL_Driver/Src/stm32f4xx_hal_flash.c ****     }
 370:/home/vadimstupakov/Data/STM32/STM32Cube/Repository/STM32Cube_FW_F4_V1.10.0/Drivers/STM32F4xx_HAL_Driver/Src/stm32f4xx_hal_flash.c ****   }
 371:/home/vadimstupakov/Data/STM32/STM32Cube/Repository/STM32Cube_FW_F4_V1.10.0/Drivers/STM32F4xx_HAL_Driver/Src/stm32f4xx_hal_flash.c ****   
 372:/home/vadimstupakov/Data/STM32/STM32Cube/Repository/STM32Cube_FW_F4_V1.10.0/Drivers/STM32F4xx_HAL_Driver/Src/stm32f4xx_hal_flash.c ****   if(pFlash.ProcedureOnGoing == FLASH_PROC_NONE)
 439              		.loc 1 372 0
 440 00fc 0F4B     		ldr	r3, .L32+4
 441 00fe 1B78     		ldrb	r3, [r3]
 442 0100 DBB2     		uxtb	r3, r3
 443 0102 002B     		cmp	r3, #0
 444 0104 14D1     		bne	.L20
 373:/home/vadimstupakov/Data/STM32/STM32Cube/Repository/STM32Cube_FW_F4_V1.10.0/Drivers/STM32F4xx_HAL_Driver/Src/stm32f4xx_hal_flash.c ****   {
 374:/home/vadimstupakov/Data/STM32/STM32Cube/Repository/STM32Cube_FW_F4_V1.10.0/Drivers/STM32F4xx_HAL_Driver/Src/stm32f4xx_hal_flash.c ****     /* Operation is completed, disable the PG, SER, SNB and MER Bits */
 375:/home/vadimstupakov/Data/STM32/STM32Cube/Repository/STM32Cube_FW_F4_V1.10.0/Drivers/STM32F4xx_HAL_Driver/Src/stm32f4xx_hal_flash.c ****     CLEAR_BIT(FLASH->CR, (FLASH_CR_PG | FLASH_CR_SER | FLASH_CR_SNB | FLASH_MER_BIT));
 445              		.loc 1 375 0
 446 0106 0C4A     		ldr	r2, .L32
 447 0108 0B4B     		ldr	r3, .L32
 448 010a 1B69     		ldr	r3, [r3, #16]
 449 010c 23F0FF03 		bic	r3, r3, #255
 450 0110 1361     		str	r3, [r2, #16]
 376:/home/vadimstupakov/Data/STM32/STM32Cube/Repository/STM32Cube_FW_F4_V1.10.0/Drivers/STM32F4xx_HAL_Driver/Src/stm32f4xx_hal_flash.c **** 
 377:/home/vadimstupakov/Data/STM32/STM32Cube/Repository/STM32Cube_FW_F4_V1.10.0/Drivers/STM32F4xx_HAL_Driver/Src/stm32f4xx_hal_flash.c ****     /* Disable End of FLASH Operation interrupt */
 378:/home/vadimstupakov/Data/STM32/STM32Cube/Repository/STM32Cube_FW_F4_V1.10.0/Drivers/STM32F4xx_HAL_Driver/Src/stm32f4xx_hal_flash.c ****     __HAL_FLASH_DISABLE_IT(FLASH_IT_EOP);
 451              		.loc 1 378 0
 452 0112 094A     		ldr	r2, .L32
 453 0114 084B     		ldr	r3, .L32
 454 0116 1B69     		ldr	r3, [r3, #16]
 455 0118 23F08073 		bic	r3, r3, #16777216
 456 011c 1361     		str	r3, [r2, #16]
 379:/home/vadimstupakov/Data/STM32/STM32Cube/Repository/STM32Cube_FW_F4_V1.10.0/Drivers/STM32F4xx_HAL_Driver/Src/stm32f4xx_hal_flash.c ****     
 380:/home/vadimstupakov/Data/STM32/STM32Cube/Repository/STM32Cube_FW_F4_V1.10.0/Drivers/STM32F4xx_HAL_Driver/Src/stm32f4xx_hal_flash.c ****     /* Disable Error source interrupt */
 381:/home/vadimstupakov/Data/STM32/STM32Cube/Repository/STM32Cube_FW_F4_V1.10.0/Drivers/STM32F4xx_HAL_Driver/Src/stm32f4xx_hal_flash.c ****     __HAL_FLASH_DISABLE_IT(FLASH_IT_ERR);
 457              		.loc 1 381 0
 458 011e 064A     		ldr	r2, .L32
 459 0120 054B     		ldr	r3, .L32
 460 0122 1B69     		ldr	r3, [r3, #16]
 461 0124 23F00073 		bic	r3, r3, #33554432
 462 0128 1361     		str	r3, [r2, #16]
 382:/home/vadimstupakov/Data/STM32/STM32Cube/Repository/STM32Cube_FW_F4_V1.10.0/Drivers/STM32F4xx_HAL_Driver/Src/stm32f4xx_hal_flash.c ****     
 383:/home/vadimstupakov/Data/STM32/STM32Cube/Repository/STM32Cube_FW_F4_V1.10.0/Drivers/STM32F4xx_HAL_Driver/Src/stm32f4xx_hal_flash.c ****     /* Process Unlocked */
 384:/home/vadimstupakov/Data/STM32/STM32Cube/Repository/STM32Cube_FW_F4_V1.10.0/Drivers/STM32F4xx_HAL_Driver/Src/stm32f4xx_hal_flash.c ****     __HAL_UNLOCK(&pFlash);
 463              		.loc 1 384 0
 464 012a 044B     		ldr	r3, .L32+4
 465 012c 0022     		movs	r2, #0
 466 012e 1A76     		strb	r2, [r3, #24]
 467              	.L20:
 385:/home/vadimstupakov/Data/STM32/STM32Cube/Repository/STM32Cube_FW_F4_V1.10.0/Drivers/STM32F4xx_HAL_Driver/Src/stm32f4xx_hal_flash.c ****   }
 386:/home/vadimstupakov/Data/STM32/STM32Cube/Repository/STM32Cube_FW_F4_V1.10.0/Drivers/STM32F4xx_HAL_Driver/Src/stm32f4xx_hal_flash.c **** }
 468              		.loc 1 386 0
 469 0130 0837     		adds	r7, r7, #8
 470              	.LCFI13:
 471              		.cfi_def_cfa_offset 8
 472 0132 BD46     		mov	sp, r7
 473              	.LCFI14:
 474              		.cfi_def_cfa_register 13
ARM GAS  /tmp/ccqDtxhv.s 			page 16


 475              		@ sp needed
 476 0134 80BD     		pop	{r7, pc}
 477              	.L33:
 478 0136 00BF     		.align	2
 479              	.L32:
 480 0138 003C0240 		.word	1073888256
 481 013c 00000000 		.word	pFlash
 482              		.cfi_endproc
 483              	.LFE127:
 485              		.section	.text.HAL_FLASH_EndOfOperationCallback,"ax",%progbits
 486              		.align	2
 487              		.weak	HAL_FLASH_EndOfOperationCallback
 488              		.thumb
 489              		.thumb_func
 491              	HAL_FLASH_EndOfOperationCallback:
 492              	.LFB128:
 387:/home/vadimstupakov/Data/STM32/STM32Cube/Repository/STM32Cube_FW_F4_V1.10.0/Drivers/STM32F4xx_HAL_Driver/Src/stm32f4xx_hal_flash.c **** 
 388:/home/vadimstupakov/Data/STM32/STM32Cube/Repository/STM32Cube_FW_F4_V1.10.0/Drivers/STM32F4xx_HAL_Driver/Src/stm32f4xx_hal_flash.c **** /**
 389:/home/vadimstupakov/Data/STM32/STM32Cube/Repository/STM32Cube_FW_F4_V1.10.0/Drivers/STM32F4xx_HAL_Driver/Src/stm32f4xx_hal_flash.c ****   * @brief  FLASH end of operation interrupt callback
 390:/home/vadimstupakov/Data/STM32/STM32Cube/Repository/STM32Cube_FW_F4_V1.10.0/Drivers/STM32F4xx_HAL_Driver/Src/stm32f4xx_hal_flash.c ****   * @param  ReturnValue: The value saved in this parameter depends on the ongoing procedure
 391:/home/vadimstupakov/Data/STM32/STM32Cube/Repository/STM32Cube_FW_F4_V1.10.0/Drivers/STM32F4xx_HAL_Driver/Src/stm32f4xx_hal_flash.c ****   *                  Mass Erase: Bank number which has been requested to erase
 392:/home/vadimstupakov/Data/STM32/STM32Cube/Repository/STM32Cube_FW_F4_V1.10.0/Drivers/STM32F4xx_HAL_Driver/Src/stm32f4xx_hal_flash.c ****   *                  Sectors Erase: Sector which has been erased 
 393:/home/vadimstupakov/Data/STM32/STM32Cube/Repository/STM32Cube_FW_F4_V1.10.0/Drivers/STM32F4xx_HAL_Driver/Src/stm32f4xx_hal_flash.c ****   *                    (if 0xFFFFFFFF, it means that all the selected sectors have been erased)
 394:/home/vadimstupakov/Data/STM32/STM32Cube/Repository/STM32Cube_FW_F4_V1.10.0/Drivers/STM32F4xx_HAL_Driver/Src/stm32f4xx_hal_flash.c ****   *                  Program: Address which was selected for data program
 395:/home/vadimstupakov/Data/STM32/STM32Cube/Repository/STM32Cube_FW_F4_V1.10.0/Drivers/STM32F4xx_HAL_Driver/Src/stm32f4xx_hal_flash.c ****   * @retval None
 396:/home/vadimstupakov/Data/STM32/STM32Cube/Repository/STM32Cube_FW_F4_V1.10.0/Drivers/STM32F4xx_HAL_Driver/Src/stm32f4xx_hal_flash.c ****   */
 397:/home/vadimstupakov/Data/STM32/STM32Cube/Repository/STM32Cube_FW_F4_V1.10.0/Drivers/STM32F4xx_HAL_Driver/Src/stm32f4xx_hal_flash.c **** __weak void HAL_FLASH_EndOfOperationCallback(uint32_t ReturnValue)
 398:/home/vadimstupakov/Data/STM32/STM32Cube/Repository/STM32Cube_FW_F4_V1.10.0/Drivers/STM32F4xx_HAL_Driver/Src/stm32f4xx_hal_flash.c **** {
 493              		.loc 1 398 0
 494              		.cfi_startproc
 495              		@ args = 0, pretend = 0, frame = 16
 496              		@ frame_needed = 1, uses_anonymous_args = 0
 497              		@ link register save eliminated.
 498 0000 80B4     		push	{r7}
 499              	.LCFI15:
 500              		.cfi_def_cfa_offset 4
 501              		.cfi_offset 7, -4
 502 0002 85B0     		sub	sp, sp, #20
 503              	.LCFI16:
 504              		.cfi_def_cfa_offset 24
 505 0004 00AF     		add	r7, sp, #0
 506              	.LCFI17:
 507              		.cfi_def_cfa_register 7
 508 0006 7860     		str	r0, [r7, #4]
 399:/home/vadimstupakov/Data/STM32/STM32Cube/Repository/STM32Cube_FW_F4_V1.10.0/Drivers/STM32F4xx_HAL_Driver/Src/stm32f4xx_hal_flash.c ****   /* Prevent unused argument(s) compilation warning */
 400:/home/vadimstupakov/Data/STM32/STM32Cube/Repository/STM32Cube_FW_F4_V1.10.0/Drivers/STM32F4xx_HAL_Driver/Src/stm32f4xx_hal_flash.c ****   __IO uint32_t tmpreg = 0x00;
 509              		.loc 1 400 0
 510 0008 0023     		movs	r3, #0
 511 000a FB60     		str	r3, [r7, #12]
 401:/home/vadimstupakov/Data/STM32/STM32Cube/Repository/STM32Cube_FW_F4_V1.10.0/Drivers/STM32F4xx_HAL_Driver/Src/stm32f4xx_hal_flash.c ****   UNUSED(tmpreg);
 512              		.loc 1 401 0
 513 000c FB68     		ldr	r3, [r7, #12]
 402:/home/vadimstupakov/Data/STM32/STM32Cube/Repository/STM32Cube_FW_F4_V1.10.0/Drivers/STM32F4xx_HAL_Driver/Src/stm32f4xx_hal_flash.c ****   /* NOTE : This function Should not be modified, when the callback is needed,
 403:/home/vadimstupakov/Data/STM32/STM32Cube/Repository/STM32Cube_FW_F4_V1.10.0/Drivers/STM32F4xx_HAL_Driver/Src/stm32f4xx_hal_flash.c ****             the HAL_FLASH_EndOfOperationCallback could be implemented in the user file
 404:/home/vadimstupakov/Data/STM32/STM32Cube/Repository/STM32Cube_FW_F4_V1.10.0/Drivers/STM32F4xx_HAL_Driver/Src/stm32f4xx_hal_flash.c ****    */ 
 405:/home/vadimstupakov/Data/STM32/STM32Cube/Repository/STM32Cube_FW_F4_V1.10.0/Drivers/STM32F4xx_HAL_Driver/Src/stm32f4xx_hal_flash.c **** }
 514              		.loc 1 405 0
ARM GAS  /tmp/ccqDtxhv.s 			page 17


 515 000e 1437     		adds	r7, r7, #20
 516              	.LCFI18:
 517              		.cfi_def_cfa_offset 4
 518 0010 BD46     		mov	sp, r7
 519              	.LCFI19:
 520              		.cfi_def_cfa_register 13
 521              		@ sp needed
 522 0012 5DF8047B 		ldr	r7, [sp], #4
 523              	.LCFI20:
 524              		.cfi_restore 7
 525              		.cfi_def_cfa_offset 0
 526 0016 7047     		bx	lr
 527              		.cfi_endproc
 528              	.LFE128:
 530              		.section	.text.HAL_FLASH_OperationErrorCallback,"ax",%progbits
 531              		.align	2
 532              		.weak	HAL_FLASH_OperationErrorCallback
 533              		.thumb
 534              		.thumb_func
 536              	HAL_FLASH_OperationErrorCallback:
 537              	.LFB129:
 406:/home/vadimstupakov/Data/STM32/STM32Cube/Repository/STM32Cube_FW_F4_V1.10.0/Drivers/STM32F4xx_HAL_Driver/Src/stm32f4xx_hal_flash.c **** 
 407:/home/vadimstupakov/Data/STM32/STM32Cube/Repository/STM32Cube_FW_F4_V1.10.0/Drivers/STM32F4xx_HAL_Driver/Src/stm32f4xx_hal_flash.c **** /**
 408:/home/vadimstupakov/Data/STM32/STM32Cube/Repository/STM32Cube_FW_F4_V1.10.0/Drivers/STM32F4xx_HAL_Driver/Src/stm32f4xx_hal_flash.c ****   * @brief  FLASH operation error interrupt callback
 409:/home/vadimstupakov/Data/STM32/STM32Cube/Repository/STM32Cube_FW_F4_V1.10.0/Drivers/STM32F4xx_HAL_Driver/Src/stm32f4xx_hal_flash.c ****   * @param  ReturnValue: The value saved in this parameter depends on the ongoing procedure
 410:/home/vadimstupakov/Data/STM32/STM32Cube/Repository/STM32Cube_FW_F4_V1.10.0/Drivers/STM32F4xx_HAL_Driver/Src/stm32f4xx_hal_flash.c ****   *                 Mass Erase: Bank number which has been requested to erase
 411:/home/vadimstupakov/Data/STM32/STM32Cube/Repository/STM32Cube_FW_F4_V1.10.0/Drivers/STM32F4xx_HAL_Driver/Src/stm32f4xx_hal_flash.c ****   *                 Sectors Erase: Sector number which returned an error
 412:/home/vadimstupakov/Data/STM32/STM32Cube/Repository/STM32Cube_FW_F4_V1.10.0/Drivers/STM32F4xx_HAL_Driver/Src/stm32f4xx_hal_flash.c ****   *                 Program: Address which was selected for data program
 413:/home/vadimstupakov/Data/STM32/STM32Cube/Repository/STM32Cube_FW_F4_V1.10.0/Drivers/STM32F4xx_HAL_Driver/Src/stm32f4xx_hal_flash.c ****   * @retval None
 414:/home/vadimstupakov/Data/STM32/STM32Cube/Repository/STM32Cube_FW_F4_V1.10.0/Drivers/STM32F4xx_HAL_Driver/Src/stm32f4xx_hal_flash.c ****   */
 415:/home/vadimstupakov/Data/STM32/STM32Cube/Repository/STM32Cube_FW_F4_V1.10.0/Drivers/STM32F4xx_HAL_Driver/Src/stm32f4xx_hal_flash.c **** __weak void HAL_FLASH_OperationErrorCallback(uint32_t ReturnValue)
 416:/home/vadimstupakov/Data/STM32/STM32Cube/Repository/STM32Cube_FW_F4_V1.10.0/Drivers/STM32F4xx_HAL_Driver/Src/stm32f4xx_hal_flash.c **** {
 538              		.loc 1 416 0
 539              		.cfi_startproc
 540              		@ args = 0, pretend = 0, frame = 16
 541              		@ frame_needed = 1, uses_anonymous_args = 0
 542              		@ link register save eliminated.
 543 0000 80B4     		push	{r7}
 544              	.LCFI21:
 545              		.cfi_def_cfa_offset 4
 546              		.cfi_offset 7, -4
 547 0002 85B0     		sub	sp, sp, #20
 548              	.LCFI22:
 549              		.cfi_def_cfa_offset 24
 550 0004 00AF     		add	r7, sp, #0
 551              	.LCFI23:
 552              		.cfi_def_cfa_register 7
 553 0006 7860     		str	r0, [r7, #4]
 417:/home/vadimstupakov/Data/STM32/STM32Cube/Repository/STM32Cube_FW_F4_V1.10.0/Drivers/STM32F4xx_HAL_Driver/Src/stm32f4xx_hal_flash.c ****   /* Prevent unused argument(s) compilation warning */
 418:/home/vadimstupakov/Data/STM32/STM32Cube/Repository/STM32Cube_FW_F4_V1.10.0/Drivers/STM32F4xx_HAL_Driver/Src/stm32f4xx_hal_flash.c ****   __IO uint32_t tmpreg = 0x00;
 554              		.loc 1 418 0
 555 0008 0023     		movs	r3, #0
 556 000a FB60     		str	r3, [r7, #12]
 419:/home/vadimstupakov/Data/STM32/STM32Cube/Repository/STM32Cube_FW_F4_V1.10.0/Drivers/STM32F4xx_HAL_Driver/Src/stm32f4xx_hal_flash.c ****   UNUSED(tmpreg);
 557              		.loc 1 419 0
 558 000c FB68     		ldr	r3, [r7, #12]
 420:/home/vadimstupakov/Data/STM32/STM32Cube/Repository/STM32Cube_FW_F4_V1.10.0/Drivers/STM32F4xx_HAL_Driver/Src/stm32f4xx_hal_flash.c ****   /* NOTE : This function Should not be modified, when the callback is needed,
ARM GAS  /tmp/ccqDtxhv.s 			page 18


 421:/home/vadimstupakov/Data/STM32/STM32Cube/Repository/STM32Cube_FW_F4_V1.10.0/Drivers/STM32F4xx_HAL_Driver/Src/stm32f4xx_hal_flash.c ****             the HAL_FLASH_OperationErrorCallback could be implemented in the user file
 422:/home/vadimstupakov/Data/STM32/STM32Cube/Repository/STM32Cube_FW_F4_V1.10.0/Drivers/STM32F4xx_HAL_Driver/Src/stm32f4xx_hal_flash.c ****    */ 
 423:/home/vadimstupakov/Data/STM32/STM32Cube/Repository/STM32Cube_FW_F4_V1.10.0/Drivers/STM32F4xx_HAL_Driver/Src/stm32f4xx_hal_flash.c **** }
 559              		.loc 1 423 0
 560 000e 1437     		adds	r7, r7, #20
 561              	.LCFI24:
 562              		.cfi_def_cfa_offset 4
 563 0010 BD46     		mov	sp, r7
 564              	.LCFI25:
 565              		.cfi_def_cfa_register 13
 566              		@ sp needed
 567 0012 5DF8047B 		ldr	r7, [sp], #4
 568              	.LCFI26:
 569              		.cfi_restore 7
 570              		.cfi_def_cfa_offset 0
 571 0016 7047     		bx	lr
 572              		.cfi_endproc
 573              	.LFE129:
 575              		.section	.text.HAL_FLASH_Unlock,"ax",%progbits
 576              		.align	2
 577              		.global	HAL_FLASH_Unlock
 578              		.thumb
 579              		.thumb_func
 581              	HAL_FLASH_Unlock:
 582              	.LFB130:
 424:/home/vadimstupakov/Data/STM32/STM32Cube/Repository/STM32Cube_FW_F4_V1.10.0/Drivers/STM32F4xx_HAL_Driver/Src/stm32f4xx_hal_flash.c **** 
 425:/home/vadimstupakov/Data/STM32/STM32Cube/Repository/STM32Cube_FW_F4_V1.10.0/Drivers/STM32F4xx_HAL_Driver/Src/stm32f4xx_hal_flash.c **** /**
 426:/home/vadimstupakov/Data/STM32/STM32Cube/Repository/STM32Cube_FW_F4_V1.10.0/Drivers/STM32F4xx_HAL_Driver/Src/stm32f4xx_hal_flash.c ****   * @}
 427:/home/vadimstupakov/Data/STM32/STM32Cube/Repository/STM32Cube_FW_F4_V1.10.0/Drivers/STM32F4xx_HAL_Driver/Src/stm32f4xx_hal_flash.c ****   */
 428:/home/vadimstupakov/Data/STM32/STM32Cube/Repository/STM32Cube_FW_F4_V1.10.0/Drivers/STM32F4xx_HAL_Driver/Src/stm32f4xx_hal_flash.c **** 
 429:/home/vadimstupakov/Data/STM32/STM32Cube/Repository/STM32Cube_FW_F4_V1.10.0/Drivers/STM32F4xx_HAL_Driver/Src/stm32f4xx_hal_flash.c **** /** @defgroup FLASH_Exported_Functions_Group2 Peripheral Control functions 
 430:/home/vadimstupakov/Data/STM32/STM32Cube/Repository/STM32Cube_FW_F4_V1.10.0/Drivers/STM32F4xx_HAL_Driver/Src/stm32f4xx_hal_flash.c ****  *  @brief   management functions 
 431:/home/vadimstupakov/Data/STM32/STM32Cube/Repository/STM32Cube_FW_F4_V1.10.0/Drivers/STM32F4xx_HAL_Driver/Src/stm32f4xx_hal_flash.c ****  *
 432:/home/vadimstupakov/Data/STM32/STM32Cube/Repository/STM32Cube_FW_F4_V1.10.0/Drivers/STM32F4xx_HAL_Driver/Src/stm32f4xx_hal_flash.c **** @verbatim   
 433:/home/vadimstupakov/Data/STM32/STM32Cube/Repository/STM32Cube_FW_F4_V1.10.0/Drivers/STM32F4xx_HAL_Driver/Src/stm32f4xx_hal_flash.c ****  ===============================================================================
 434:/home/vadimstupakov/Data/STM32/STM32Cube/Repository/STM32Cube_FW_F4_V1.10.0/Drivers/STM32F4xx_HAL_Driver/Src/stm32f4xx_hal_flash.c ****                       ##### Peripheral Control functions #####
 435:/home/vadimstupakov/Data/STM32/STM32Cube/Repository/STM32Cube_FW_F4_V1.10.0/Drivers/STM32F4xx_HAL_Driver/Src/stm32f4xx_hal_flash.c ****  ===============================================================================  
 436:/home/vadimstupakov/Data/STM32/STM32Cube/Repository/STM32Cube_FW_F4_V1.10.0/Drivers/STM32F4xx_HAL_Driver/Src/stm32f4xx_hal_flash.c ****     [..]
 437:/home/vadimstupakov/Data/STM32/STM32Cube/Repository/STM32Cube_FW_F4_V1.10.0/Drivers/STM32F4xx_HAL_Driver/Src/stm32f4xx_hal_flash.c ****     This subsection provides a set of functions allowing to control the FLASH 
 438:/home/vadimstupakov/Data/STM32/STM32Cube/Repository/STM32Cube_FW_F4_V1.10.0/Drivers/STM32F4xx_HAL_Driver/Src/stm32f4xx_hal_flash.c ****     memory operations.
 439:/home/vadimstupakov/Data/STM32/STM32Cube/Repository/STM32Cube_FW_F4_V1.10.0/Drivers/STM32F4xx_HAL_Driver/Src/stm32f4xx_hal_flash.c **** 
 440:/home/vadimstupakov/Data/STM32/STM32Cube/Repository/STM32Cube_FW_F4_V1.10.0/Drivers/STM32F4xx_HAL_Driver/Src/stm32f4xx_hal_flash.c **** @endverbatim
 441:/home/vadimstupakov/Data/STM32/STM32Cube/Repository/STM32Cube_FW_F4_V1.10.0/Drivers/STM32F4xx_HAL_Driver/Src/stm32f4xx_hal_flash.c ****   * @{
 442:/home/vadimstupakov/Data/STM32/STM32Cube/Repository/STM32Cube_FW_F4_V1.10.0/Drivers/STM32F4xx_HAL_Driver/Src/stm32f4xx_hal_flash.c ****   */
 443:/home/vadimstupakov/Data/STM32/STM32Cube/Repository/STM32Cube_FW_F4_V1.10.0/Drivers/STM32F4xx_HAL_Driver/Src/stm32f4xx_hal_flash.c **** 
 444:/home/vadimstupakov/Data/STM32/STM32Cube/Repository/STM32Cube_FW_F4_V1.10.0/Drivers/STM32F4xx_HAL_Driver/Src/stm32f4xx_hal_flash.c **** /**
 445:/home/vadimstupakov/Data/STM32/STM32Cube/Repository/STM32Cube_FW_F4_V1.10.0/Drivers/STM32F4xx_HAL_Driver/Src/stm32f4xx_hal_flash.c ****   * @brief  Unlock the FLASH control register access
 446:/home/vadimstupakov/Data/STM32/STM32Cube/Repository/STM32Cube_FW_F4_V1.10.0/Drivers/STM32F4xx_HAL_Driver/Src/stm32f4xx_hal_flash.c ****   * @retval HAL Status
 447:/home/vadimstupakov/Data/STM32/STM32Cube/Repository/STM32Cube_FW_F4_V1.10.0/Drivers/STM32F4xx_HAL_Driver/Src/stm32f4xx_hal_flash.c ****   */
 448:/home/vadimstupakov/Data/STM32/STM32Cube/Repository/STM32Cube_FW_F4_V1.10.0/Drivers/STM32F4xx_HAL_Driver/Src/stm32f4xx_hal_flash.c **** HAL_StatusTypeDef HAL_FLASH_Unlock(void)
 449:/home/vadimstupakov/Data/STM32/STM32Cube/Repository/STM32Cube_FW_F4_V1.10.0/Drivers/STM32F4xx_HAL_Driver/Src/stm32f4xx_hal_flash.c **** {
 583              		.loc 1 449 0
 584              		.cfi_startproc
 585              		@ args = 0, pretend = 0, frame = 0
 586              		@ frame_needed = 1, uses_anonymous_args = 0
 587              		@ link register save eliminated.
 588 0000 80B4     		push	{r7}
ARM GAS  /tmp/ccqDtxhv.s 			page 19


 589              	.LCFI27:
 590              		.cfi_def_cfa_offset 4
 591              		.cfi_offset 7, -4
 592 0002 00AF     		add	r7, sp, #0
 593              	.LCFI28:
 594              		.cfi_def_cfa_register 7
 450:/home/vadimstupakov/Data/STM32/STM32Cube/Repository/STM32Cube_FW_F4_V1.10.0/Drivers/STM32F4xx_HAL_Driver/Src/stm32f4xx_hal_flash.c ****   if((FLASH->CR & FLASH_CR_LOCK) != RESET)
 595              		.loc 1 450 0
 596 0004 084B     		ldr	r3, .L40
 597 0006 1B69     		ldr	r3, [r3, #16]
 598 0008 002B     		cmp	r3, #0
 599 000a 07DA     		bge	.L37
 451:/home/vadimstupakov/Data/STM32/STM32Cube/Repository/STM32Cube_FW_F4_V1.10.0/Drivers/STM32F4xx_HAL_Driver/Src/stm32f4xx_hal_flash.c ****   {
 452:/home/vadimstupakov/Data/STM32/STM32Cube/Repository/STM32Cube_FW_F4_V1.10.0/Drivers/STM32F4xx_HAL_Driver/Src/stm32f4xx_hal_flash.c ****     /* Authorize the FLASH Registers access */
 453:/home/vadimstupakov/Data/STM32/STM32Cube/Repository/STM32Cube_FW_F4_V1.10.0/Drivers/STM32F4xx_HAL_Driver/Src/stm32f4xx_hal_flash.c ****     FLASH->KEYR = FLASH_KEY1;
 600              		.loc 1 453 0
 601 000c 064B     		ldr	r3, .L40
 602 000e 074A     		ldr	r2, .L40+4
 603 0010 5A60     		str	r2, [r3, #4]
 454:/home/vadimstupakov/Data/STM32/STM32Cube/Repository/STM32Cube_FW_F4_V1.10.0/Drivers/STM32F4xx_HAL_Driver/Src/stm32f4xx_hal_flash.c ****     FLASH->KEYR = FLASH_KEY2;
 604              		.loc 1 454 0
 605 0012 054B     		ldr	r3, .L40
 606 0014 064A     		ldr	r2, .L40+8
 607 0016 5A60     		str	r2, [r3, #4]
 455:/home/vadimstupakov/Data/STM32/STM32Cube/Repository/STM32Cube_FW_F4_V1.10.0/Drivers/STM32F4xx_HAL_Driver/Src/stm32f4xx_hal_flash.c ****   }
 456:/home/vadimstupakov/Data/STM32/STM32Cube/Repository/STM32Cube_FW_F4_V1.10.0/Drivers/STM32F4xx_HAL_Driver/Src/stm32f4xx_hal_flash.c ****   else
 457:/home/vadimstupakov/Data/STM32/STM32Cube/Repository/STM32Cube_FW_F4_V1.10.0/Drivers/STM32F4xx_HAL_Driver/Src/stm32f4xx_hal_flash.c ****   {
 458:/home/vadimstupakov/Data/STM32/STM32Cube/Repository/STM32Cube_FW_F4_V1.10.0/Drivers/STM32F4xx_HAL_Driver/Src/stm32f4xx_hal_flash.c ****     return HAL_ERROR;
 459:/home/vadimstupakov/Data/STM32/STM32Cube/Repository/STM32Cube_FW_F4_V1.10.0/Drivers/STM32F4xx_HAL_Driver/Src/stm32f4xx_hal_flash.c ****   }
 460:/home/vadimstupakov/Data/STM32/STM32Cube/Repository/STM32Cube_FW_F4_V1.10.0/Drivers/STM32F4xx_HAL_Driver/Src/stm32f4xx_hal_flash.c ****   
 461:/home/vadimstupakov/Data/STM32/STM32Cube/Repository/STM32Cube_FW_F4_V1.10.0/Drivers/STM32F4xx_HAL_Driver/Src/stm32f4xx_hal_flash.c ****   return HAL_OK; 
 608              		.loc 1 461 0
 609 0018 0023     		movs	r3, #0
 610 001a 00E0     		b	.L39
 611              	.L37:
 458:/home/vadimstupakov/Data/STM32/STM32Cube/Repository/STM32Cube_FW_F4_V1.10.0/Drivers/STM32F4xx_HAL_Driver/Src/stm32f4xx_hal_flash.c ****   }
 612              		.loc 1 458 0
 613 001c 0123     		movs	r3, #1
 614              	.L39:
 462:/home/vadimstupakov/Data/STM32/STM32Cube/Repository/STM32Cube_FW_F4_V1.10.0/Drivers/STM32F4xx_HAL_Driver/Src/stm32f4xx_hal_flash.c **** }
 615              		.loc 1 462 0
 616 001e 1846     		mov	r0, r3
 617 0020 BD46     		mov	sp, r7
 618              	.LCFI29:
 619              		.cfi_def_cfa_register 13
 620              		@ sp needed
 621 0022 5DF8047B 		ldr	r7, [sp], #4
 622              	.LCFI30:
 623              		.cfi_restore 7
 624              		.cfi_def_cfa_offset 0
 625 0026 7047     		bx	lr
 626              	.L41:
 627              		.align	2
 628              	.L40:
 629 0028 003C0240 		.word	1073888256
 630 002c 23016745 		.word	1164378403
 631 0030 AB89EFCD 		.word	-839939669
ARM GAS  /tmp/ccqDtxhv.s 			page 20


 632              		.cfi_endproc
 633              	.LFE130:
 635              		.section	.text.HAL_FLASH_Lock,"ax",%progbits
 636              		.align	2
 637              		.global	HAL_FLASH_Lock
 638              		.thumb
 639              		.thumb_func
 641              	HAL_FLASH_Lock:
 642              	.LFB131:
 463:/home/vadimstupakov/Data/STM32/STM32Cube/Repository/STM32Cube_FW_F4_V1.10.0/Drivers/STM32F4xx_HAL_Driver/Src/stm32f4xx_hal_flash.c **** 
 464:/home/vadimstupakov/Data/STM32/STM32Cube/Repository/STM32Cube_FW_F4_V1.10.0/Drivers/STM32F4xx_HAL_Driver/Src/stm32f4xx_hal_flash.c **** /**
 465:/home/vadimstupakov/Data/STM32/STM32Cube/Repository/STM32Cube_FW_F4_V1.10.0/Drivers/STM32F4xx_HAL_Driver/Src/stm32f4xx_hal_flash.c ****   * @brief  Locks the FLASH control register access
 466:/home/vadimstupakov/Data/STM32/STM32Cube/Repository/STM32Cube_FW_F4_V1.10.0/Drivers/STM32F4xx_HAL_Driver/Src/stm32f4xx_hal_flash.c ****   * @retval HAL Status
 467:/home/vadimstupakov/Data/STM32/STM32Cube/Repository/STM32Cube_FW_F4_V1.10.0/Drivers/STM32F4xx_HAL_Driver/Src/stm32f4xx_hal_flash.c ****   */
 468:/home/vadimstupakov/Data/STM32/STM32Cube/Repository/STM32Cube_FW_F4_V1.10.0/Drivers/STM32F4xx_HAL_Driver/Src/stm32f4xx_hal_flash.c **** HAL_StatusTypeDef HAL_FLASH_Lock(void)
 469:/home/vadimstupakov/Data/STM32/STM32Cube/Repository/STM32Cube_FW_F4_V1.10.0/Drivers/STM32F4xx_HAL_Driver/Src/stm32f4xx_hal_flash.c **** {
 643              		.loc 1 469 0
 644              		.cfi_startproc
 645              		@ args = 0, pretend = 0, frame = 0
 646              		@ frame_needed = 1, uses_anonymous_args = 0
 647              		@ link register save eliminated.
 648 0000 80B4     		push	{r7}
 649              	.LCFI31:
 650              		.cfi_def_cfa_offset 4
 651              		.cfi_offset 7, -4
 652 0002 00AF     		add	r7, sp, #0
 653              	.LCFI32:
 654              		.cfi_def_cfa_register 7
 470:/home/vadimstupakov/Data/STM32/STM32Cube/Repository/STM32Cube_FW_F4_V1.10.0/Drivers/STM32F4xx_HAL_Driver/Src/stm32f4xx_hal_flash.c ****   /* Set the LOCK Bit to lock the FLASH Registers access */
 471:/home/vadimstupakov/Data/STM32/STM32Cube/Repository/STM32Cube_FW_F4_V1.10.0/Drivers/STM32F4xx_HAL_Driver/Src/stm32f4xx_hal_flash.c ****   FLASH->CR |= FLASH_CR_LOCK;
 655              		.loc 1 471 0
 656 0004 054A     		ldr	r2, .L44
 657 0006 054B     		ldr	r3, .L44
 658 0008 1B69     		ldr	r3, [r3, #16]
 659 000a 43F00043 		orr	r3, r3, #-2147483648
 660 000e 1361     		str	r3, [r2, #16]
 472:/home/vadimstupakov/Data/STM32/STM32Cube/Repository/STM32Cube_FW_F4_V1.10.0/Drivers/STM32F4xx_HAL_Driver/Src/stm32f4xx_hal_flash.c ****   
 473:/home/vadimstupakov/Data/STM32/STM32Cube/Repository/STM32Cube_FW_F4_V1.10.0/Drivers/STM32F4xx_HAL_Driver/Src/stm32f4xx_hal_flash.c ****   return HAL_OK;  
 661              		.loc 1 473 0
 662 0010 0023     		movs	r3, #0
 474:/home/vadimstupakov/Data/STM32/STM32Cube/Repository/STM32Cube_FW_F4_V1.10.0/Drivers/STM32F4xx_HAL_Driver/Src/stm32f4xx_hal_flash.c **** }
 663              		.loc 1 474 0
 664 0012 1846     		mov	r0, r3
 665 0014 BD46     		mov	sp, r7
 666              	.LCFI33:
 667              		.cfi_def_cfa_register 13
 668              		@ sp needed
 669 0016 5DF8047B 		ldr	r7, [sp], #4
 670              	.LCFI34:
 671              		.cfi_restore 7
 672              		.cfi_def_cfa_offset 0
 673 001a 7047     		bx	lr
 674              	.L45:
 675              		.align	2
 676              	.L44:
 677 001c 003C0240 		.word	1073888256
 678              		.cfi_endproc
ARM GAS  /tmp/ccqDtxhv.s 			page 21


 679              	.LFE131:
 681              		.section	.text.HAL_FLASH_OB_Unlock,"ax",%progbits
 682              		.align	2
 683              		.global	HAL_FLASH_OB_Unlock
 684              		.thumb
 685              		.thumb_func
 687              	HAL_FLASH_OB_Unlock:
 688              	.LFB132:
 475:/home/vadimstupakov/Data/STM32/STM32Cube/Repository/STM32Cube_FW_F4_V1.10.0/Drivers/STM32F4xx_HAL_Driver/Src/stm32f4xx_hal_flash.c **** 
 476:/home/vadimstupakov/Data/STM32/STM32Cube/Repository/STM32Cube_FW_F4_V1.10.0/Drivers/STM32F4xx_HAL_Driver/Src/stm32f4xx_hal_flash.c **** /**
 477:/home/vadimstupakov/Data/STM32/STM32Cube/Repository/STM32Cube_FW_F4_V1.10.0/Drivers/STM32F4xx_HAL_Driver/Src/stm32f4xx_hal_flash.c ****   * @brief  Unlock the FLASH Option Control Registers access.
 478:/home/vadimstupakov/Data/STM32/STM32Cube/Repository/STM32Cube_FW_F4_V1.10.0/Drivers/STM32F4xx_HAL_Driver/Src/stm32f4xx_hal_flash.c ****   * @retval HAL Status
 479:/home/vadimstupakov/Data/STM32/STM32Cube/Repository/STM32Cube_FW_F4_V1.10.0/Drivers/STM32F4xx_HAL_Driver/Src/stm32f4xx_hal_flash.c ****   */
 480:/home/vadimstupakov/Data/STM32/STM32Cube/Repository/STM32Cube_FW_F4_V1.10.0/Drivers/STM32F4xx_HAL_Driver/Src/stm32f4xx_hal_flash.c **** HAL_StatusTypeDef HAL_FLASH_OB_Unlock(void)
 481:/home/vadimstupakov/Data/STM32/STM32Cube/Repository/STM32Cube_FW_F4_V1.10.0/Drivers/STM32F4xx_HAL_Driver/Src/stm32f4xx_hal_flash.c **** {
 689              		.loc 1 481 0
 690              		.cfi_startproc
 691              		@ args = 0, pretend = 0, frame = 0
 692              		@ frame_needed = 1, uses_anonymous_args = 0
 693              		@ link register save eliminated.
 694 0000 80B4     		push	{r7}
 695              	.LCFI35:
 696              		.cfi_def_cfa_offset 4
 697              		.cfi_offset 7, -4
 698 0002 00AF     		add	r7, sp, #0
 699              	.LCFI36:
 700              		.cfi_def_cfa_register 7
 482:/home/vadimstupakov/Data/STM32/STM32Cube/Repository/STM32Cube_FW_F4_V1.10.0/Drivers/STM32F4xx_HAL_Driver/Src/stm32f4xx_hal_flash.c ****   if((FLASH->OPTCR & FLASH_OPTCR_OPTLOCK) != RESET)
 701              		.loc 1 482 0
 702 0004 094B     		ldr	r3, .L50
 703 0006 5B69     		ldr	r3, [r3, #20]
 704 0008 03F00103 		and	r3, r3, #1
 705 000c 002B     		cmp	r3, #0
 706 000e 07D0     		beq	.L47
 483:/home/vadimstupakov/Data/STM32/STM32Cube/Repository/STM32Cube_FW_F4_V1.10.0/Drivers/STM32F4xx_HAL_Driver/Src/stm32f4xx_hal_flash.c ****   {
 484:/home/vadimstupakov/Data/STM32/STM32Cube/Repository/STM32Cube_FW_F4_V1.10.0/Drivers/STM32F4xx_HAL_Driver/Src/stm32f4xx_hal_flash.c ****     /* Authorizes the Option Byte register programming */
 485:/home/vadimstupakov/Data/STM32/STM32Cube/Repository/STM32Cube_FW_F4_V1.10.0/Drivers/STM32F4xx_HAL_Driver/Src/stm32f4xx_hal_flash.c ****     FLASH->OPTKEYR = FLASH_OPT_KEY1;
 707              		.loc 1 485 0
 708 0010 064B     		ldr	r3, .L50
 709 0012 074A     		ldr	r2, .L50+4
 710 0014 9A60     		str	r2, [r3, #8]
 486:/home/vadimstupakov/Data/STM32/STM32Cube/Repository/STM32Cube_FW_F4_V1.10.0/Drivers/STM32F4xx_HAL_Driver/Src/stm32f4xx_hal_flash.c ****     FLASH->OPTKEYR = FLASH_OPT_KEY2;
 711              		.loc 1 486 0
 712 0016 054B     		ldr	r3, .L50
 713 0018 064A     		ldr	r2, .L50+8
 714 001a 9A60     		str	r2, [r3, #8]
 487:/home/vadimstupakov/Data/STM32/STM32Cube/Repository/STM32Cube_FW_F4_V1.10.0/Drivers/STM32F4xx_HAL_Driver/Src/stm32f4xx_hal_flash.c ****   }
 488:/home/vadimstupakov/Data/STM32/STM32Cube/Repository/STM32Cube_FW_F4_V1.10.0/Drivers/STM32F4xx_HAL_Driver/Src/stm32f4xx_hal_flash.c ****   else
 489:/home/vadimstupakov/Data/STM32/STM32Cube/Repository/STM32Cube_FW_F4_V1.10.0/Drivers/STM32F4xx_HAL_Driver/Src/stm32f4xx_hal_flash.c ****   {
 490:/home/vadimstupakov/Data/STM32/STM32Cube/Repository/STM32Cube_FW_F4_V1.10.0/Drivers/STM32F4xx_HAL_Driver/Src/stm32f4xx_hal_flash.c ****     return HAL_ERROR;
 491:/home/vadimstupakov/Data/STM32/STM32Cube/Repository/STM32Cube_FW_F4_V1.10.0/Drivers/STM32F4xx_HAL_Driver/Src/stm32f4xx_hal_flash.c ****   }  
 492:/home/vadimstupakov/Data/STM32/STM32Cube/Repository/STM32Cube_FW_F4_V1.10.0/Drivers/STM32F4xx_HAL_Driver/Src/stm32f4xx_hal_flash.c ****   
 493:/home/vadimstupakov/Data/STM32/STM32Cube/Repository/STM32Cube_FW_F4_V1.10.0/Drivers/STM32F4xx_HAL_Driver/Src/stm32f4xx_hal_flash.c ****   return HAL_OK;  
 715              		.loc 1 493 0
 716 001c 0023     		movs	r3, #0
 717 001e 00E0     		b	.L49
 718              	.L47:
ARM GAS  /tmp/ccqDtxhv.s 			page 22


 490:/home/vadimstupakov/Data/STM32/STM32Cube/Repository/STM32Cube_FW_F4_V1.10.0/Drivers/STM32F4xx_HAL_Driver/Src/stm32f4xx_hal_flash.c ****   }  
 719              		.loc 1 490 0
 720 0020 0123     		movs	r3, #1
 721              	.L49:
 494:/home/vadimstupakov/Data/STM32/STM32Cube/Repository/STM32Cube_FW_F4_V1.10.0/Drivers/STM32F4xx_HAL_Driver/Src/stm32f4xx_hal_flash.c **** }
 722              		.loc 1 494 0
 723 0022 1846     		mov	r0, r3
 724 0024 BD46     		mov	sp, r7
 725              	.LCFI37:
 726              		.cfi_def_cfa_register 13
 727              		@ sp needed
 728 0026 5DF8047B 		ldr	r7, [sp], #4
 729              	.LCFI38:
 730              		.cfi_restore 7
 731              		.cfi_def_cfa_offset 0
 732 002a 7047     		bx	lr
 733              	.L51:
 734              		.align	2
 735              	.L50:
 736 002c 003C0240 		.word	1073888256
 737 0030 3B2A1908 		.word	135866939
 738 0034 7F6E5D4C 		.word	1281191551
 739              		.cfi_endproc
 740              	.LFE132:
 742              		.section	.text.HAL_FLASH_OB_Lock,"ax",%progbits
 743              		.align	2
 744              		.global	HAL_FLASH_OB_Lock
 745              		.thumb
 746              		.thumb_func
 748              	HAL_FLASH_OB_Lock:
 749              	.LFB133:
 495:/home/vadimstupakov/Data/STM32/STM32Cube/Repository/STM32Cube_FW_F4_V1.10.0/Drivers/STM32F4xx_HAL_Driver/Src/stm32f4xx_hal_flash.c **** 
 496:/home/vadimstupakov/Data/STM32/STM32Cube/Repository/STM32Cube_FW_F4_V1.10.0/Drivers/STM32F4xx_HAL_Driver/Src/stm32f4xx_hal_flash.c **** /**
 497:/home/vadimstupakov/Data/STM32/STM32Cube/Repository/STM32Cube_FW_F4_V1.10.0/Drivers/STM32F4xx_HAL_Driver/Src/stm32f4xx_hal_flash.c ****   * @brief  Lock the FLASH Option Control Registers access.
 498:/home/vadimstupakov/Data/STM32/STM32Cube/Repository/STM32Cube_FW_F4_V1.10.0/Drivers/STM32F4xx_HAL_Driver/Src/stm32f4xx_hal_flash.c ****   * @retval HAL Status 
 499:/home/vadimstupakov/Data/STM32/STM32Cube/Repository/STM32Cube_FW_F4_V1.10.0/Drivers/STM32F4xx_HAL_Driver/Src/stm32f4xx_hal_flash.c ****   */
 500:/home/vadimstupakov/Data/STM32/STM32Cube/Repository/STM32Cube_FW_F4_V1.10.0/Drivers/STM32F4xx_HAL_Driver/Src/stm32f4xx_hal_flash.c **** HAL_StatusTypeDef HAL_FLASH_OB_Lock(void)
 501:/home/vadimstupakov/Data/STM32/STM32Cube/Repository/STM32Cube_FW_F4_V1.10.0/Drivers/STM32F4xx_HAL_Driver/Src/stm32f4xx_hal_flash.c **** {
 750              		.loc 1 501 0
 751              		.cfi_startproc
 752              		@ args = 0, pretend = 0, frame = 0
 753              		@ frame_needed = 1, uses_anonymous_args = 0
 754              		@ link register save eliminated.
 755 0000 80B4     		push	{r7}
 756              	.LCFI39:
 757              		.cfi_def_cfa_offset 4
 758              		.cfi_offset 7, -4
 759 0002 00AF     		add	r7, sp, #0
 760              	.LCFI40:
 761              		.cfi_def_cfa_register 7
 502:/home/vadimstupakov/Data/STM32/STM32Cube/Repository/STM32Cube_FW_F4_V1.10.0/Drivers/STM32F4xx_HAL_Driver/Src/stm32f4xx_hal_flash.c ****   /* Set the OPTLOCK Bit to lock the FLASH Option Byte Registers access */
 503:/home/vadimstupakov/Data/STM32/STM32Cube/Repository/STM32Cube_FW_F4_V1.10.0/Drivers/STM32F4xx_HAL_Driver/Src/stm32f4xx_hal_flash.c ****   FLASH->OPTCR |= FLASH_OPTCR_OPTLOCK;
 762              		.loc 1 503 0
 763 0004 054A     		ldr	r2, .L54
 764 0006 054B     		ldr	r3, .L54
 765 0008 5B69     		ldr	r3, [r3, #20]
 766 000a 43F00103 		orr	r3, r3, #1
ARM GAS  /tmp/ccqDtxhv.s 			page 23


 767 000e 5361     		str	r3, [r2, #20]
 504:/home/vadimstupakov/Data/STM32/STM32Cube/Repository/STM32Cube_FW_F4_V1.10.0/Drivers/STM32F4xx_HAL_Driver/Src/stm32f4xx_hal_flash.c ****   
 505:/home/vadimstupakov/Data/STM32/STM32Cube/Repository/STM32Cube_FW_F4_V1.10.0/Drivers/STM32F4xx_HAL_Driver/Src/stm32f4xx_hal_flash.c ****   return HAL_OK;  
 768              		.loc 1 505 0
 769 0010 0023     		movs	r3, #0
 506:/home/vadimstupakov/Data/STM32/STM32Cube/Repository/STM32Cube_FW_F4_V1.10.0/Drivers/STM32F4xx_HAL_Driver/Src/stm32f4xx_hal_flash.c **** }
 770              		.loc 1 506 0
 771 0012 1846     		mov	r0, r3
 772 0014 BD46     		mov	sp, r7
 773              	.LCFI41:
 774              		.cfi_def_cfa_register 13
 775              		@ sp needed
 776 0016 5DF8047B 		ldr	r7, [sp], #4
 777              	.LCFI42:
 778              		.cfi_restore 7
 779              		.cfi_def_cfa_offset 0
 780 001a 7047     		bx	lr
 781              	.L55:
 782              		.align	2
 783              	.L54:
 784 001c 003C0240 		.word	1073888256
 785              		.cfi_endproc
 786              	.LFE133:
 788              		.section	.text.HAL_FLASH_OB_Launch,"ax",%progbits
 789              		.align	2
 790              		.global	HAL_FLASH_OB_Launch
 791              		.thumb
 792              		.thumb_func
 794              	HAL_FLASH_OB_Launch:
 795              	.LFB134:
 507:/home/vadimstupakov/Data/STM32/STM32Cube/Repository/STM32Cube_FW_F4_V1.10.0/Drivers/STM32F4xx_HAL_Driver/Src/stm32f4xx_hal_flash.c **** 
 508:/home/vadimstupakov/Data/STM32/STM32Cube/Repository/STM32Cube_FW_F4_V1.10.0/Drivers/STM32F4xx_HAL_Driver/Src/stm32f4xx_hal_flash.c **** /**
 509:/home/vadimstupakov/Data/STM32/STM32Cube/Repository/STM32Cube_FW_F4_V1.10.0/Drivers/STM32F4xx_HAL_Driver/Src/stm32f4xx_hal_flash.c ****   * @brief  Launch the option byte loading.
 510:/home/vadimstupakov/Data/STM32/STM32Cube/Repository/STM32Cube_FW_F4_V1.10.0/Drivers/STM32F4xx_HAL_Driver/Src/stm32f4xx_hal_flash.c ****   * @retval HAL Status
 511:/home/vadimstupakov/Data/STM32/STM32Cube/Repository/STM32Cube_FW_F4_V1.10.0/Drivers/STM32F4xx_HAL_Driver/Src/stm32f4xx_hal_flash.c ****   */
 512:/home/vadimstupakov/Data/STM32/STM32Cube/Repository/STM32Cube_FW_F4_V1.10.0/Drivers/STM32F4xx_HAL_Driver/Src/stm32f4xx_hal_flash.c **** HAL_StatusTypeDef HAL_FLASH_OB_Launch(void)
 513:/home/vadimstupakov/Data/STM32/STM32Cube/Repository/STM32Cube_FW_F4_V1.10.0/Drivers/STM32F4xx_HAL_Driver/Src/stm32f4xx_hal_flash.c **** {
 796              		.loc 1 513 0
 797              		.cfi_startproc
 798              		@ args = 0, pretend = 0, frame = 0
 799              		@ frame_needed = 1, uses_anonymous_args = 0
 800 0000 80B5     		push	{r7, lr}
 801              	.LCFI43:
 802              		.cfi_def_cfa_offset 8
 803              		.cfi_offset 7, -8
 804              		.cfi_offset 14, -4
 805 0002 00AF     		add	r7, sp, #0
 806              	.LCFI44:
 807              		.cfi_def_cfa_register 7
 514:/home/vadimstupakov/Data/STM32/STM32Cube/Repository/STM32Cube_FW_F4_V1.10.0/Drivers/STM32F4xx_HAL_Driver/Src/stm32f4xx_hal_flash.c ****   /* Set the OPTSTRT bit in OPTCR register */
 515:/home/vadimstupakov/Data/STM32/STM32Cube/Repository/STM32Cube_FW_F4_V1.10.0/Drivers/STM32F4xx_HAL_Driver/Src/stm32f4xx_hal_flash.c ****   *(__IO uint8_t *)OPTCR_BYTE0_ADDRESS |= FLASH_OPTCR_OPTSTRT;
 808              		.loc 1 515 0
 809 0004 074A     		ldr	r2, .L58
 810 0006 074B     		ldr	r3, .L58
 811 0008 1B78     		ldrb	r3, [r3]
 812 000a DBB2     		uxtb	r3, r3
 813 000c 43F00203 		orr	r3, r3, #2
ARM GAS  /tmp/ccqDtxhv.s 			page 24


 814 0010 DBB2     		uxtb	r3, r3
 815 0012 1370     		strb	r3, [r2]
 516:/home/vadimstupakov/Data/STM32/STM32Cube/Repository/STM32Cube_FW_F4_V1.10.0/Drivers/STM32F4xx_HAL_Driver/Src/stm32f4xx_hal_flash.c **** 
 517:/home/vadimstupakov/Data/STM32/STM32Cube/Repository/STM32Cube_FW_F4_V1.10.0/Drivers/STM32F4xx_HAL_Driver/Src/stm32f4xx_hal_flash.c ****   /* Wait for last operation to be completed */
 518:/home/vadimstupakov/Data/STM32/STM32Cube/Repository/STM32Cube_FW_F4_V1.10.0/Drivers/STM32F4xx_HAL_Driver/Src/stm32f4xx_hal_flash.c ****   return(FLASH_WaitForLastOperation((uint32_t)FLASH_TIMEOUT_VALUE)); 
 816              		.loc 1 518 0
 817 0014 4CF25030 		movw	r0, #50000
 818 0018 FFF7FEFF 		bl	FLASH_WaitForLastOperation
 819 001c 0346     		mov	r3, r0
 519:/home/vadimstupakov/Data/STM32/STM32Cube/Repository/STM32Cube_FW_F4_V1.10.0/Drivers/STM32F4xx_HAL_Driver/Src/stm32f4xx_hal_flash.c **** }
 820              		.loc 1 519 0
 821 001e 1846     		mov	r0, r3
 822 0020 80BD     		pop	{r7, pc}
 823              	.L59:
 824 0022 00BF     		.align	2
 825              	.L58:
 826 0024 143C0240 		.word	1073888276
 827              		.cfi_endproc
 828              	.LFE134:
 830              		.section	.text.HAL_FLASH_GetError,"ax",%progbits
 831              		.align	2
 832              		.global	HAL_FLASH_GetError
 833              		.thumb
 834              		.thumb_func
 836              	HAL_FLASH_GetError:
 837              	.LFB135:
 520:/home/vadimstupakov/Data/STM32/STM32Cube/Repository/STM32Cube_FW_F4_V1.10.0/Drivers/STM32F4xx_HAL_Driver/Src/stm32f4xx_hal_flash.c **** 
 521:/home/vadimstupakov/Data/STM32/STM32Cube/Repository/STM32Cube_FW_F4_V1.10.0/Drivers/STM32F4xx_HAL_Driver/Src/stm32f4xx_hal_flash.c **** /**
 522:/home/vadimstupakov/Data/STM32/STM32Cube/Repository/STM32Cube_FW_F4_V1.10.0/Drivers/STM32F4xx_HAL_Driver/Src/stm32f4xx_hal_flash.c ****   * @}
 523:/home/vadimstupakov/Data/STM32/STM32Cube/Repository/STM32Cube_FW_F4_V1.10.0/Drivers/STM32F4xx_HAL_Driver/Src/stm32f4xx_hal_flash.c ****   */
 524:/home/vadimstupakov/Data/STM32/STM32Cube/Repository/STM32Cube_FW_F4_V1.10.0/Drivers/STM32F4xx_HAL_Driver/Src/stm32f4xx_hal_flash.c **** 
 525:/home/vadimstupakov/Data/STM32/STM32Cube/Repository/STM32Cube_FW_F4_V1.10.0/Drivers/STM32F4xx_HAL_Driver/Src/stm32f4xx_hal_flash.c **** /** @defgroup FLASH_Exported_Functions_Group3 Peripheral State and Errors functions 
 526:/home/vadimstupakov/Data/STM32/STM32Cube/Repository/STM32Cube_FW_F4_V1.10.0/Drivers/STM32F4xx_HAL_Driver/Src/stm32f4xx_hal_flash.c ****  *  @brief   Peripheral Errors functions 
 527:/home/vadimstupakov/Data/STM32/STM32Cube/Repository/STM32Cube_FW_F4_V1.10.0/Drivers/STM32F4xx_HAL_Driver/Src/stm32f4xx_hal_flash.c ****  *
 528:/home/vadimstupakov/Data/STM32/STM32Cube/Repository/STM32Cube_FW_F4_V1.10.0/Drivers/STM32F4xx_HAL_Driver/Src/stm32f4xx_hal_flash.c **** @verbatim   
 529:/home/vadimstupakov/Data/STM32/STM32Cube/Repository/STM32Cube_FW_F4_V1.10.0/Drivers/STM32F4xx_HAL_Driver/Src/stm32f4xx_hal_flash.c ****  ===============================================================================
 530:/home/vadimstupakov/Data/STM32/STM32Cube/Repository/STM32Cube_FW_F4_V1.10.0/Drivers/STM32F4xx_HAL_Driver/Src/stm32f4xx_hal_flash.c ****                 ##### Peripheral Errors functions #####
 531:/home/vadimstupakov/Data/STM32/STM32Cube/Repository/STM32Cube_FW_F4_V1.10.0/Drivers/STM32F4xx_HAL_Driver/Src/stm32f4xx_hal_flash.c ****  ===============================================================================  
 532:/home/vadimstupakov/Data/STM32/STM32Cube/Repository/STM32Cube_FW_F4_V1.10.0/Drivers/STM32F4xx_HAL_Driver/Src/stm32f4xx_hal_flash.c ****     [..]
 533:/home/vadimstupakov/Data/STM32/STM32Cube/Repository/STM32Cube_FW_F4_V1.10.0/Drivers/STM32F4xx_HAL_Driver/Src/stm32f4xx_hal_flash.c ****     This subsection permits to get in run-time Errors of the FLASH peripheral.
 534:/home/vadimstupakov/Data/STM32/STM32Cube/Repository/STM32Cube_FW_F4_V1.10.0/Drivers/STM32F4xx_HAL_Driver/Src/stm32f4xx_hal_flash.c **** 
 535:/home/vadimstupakov/Data/STM32/STM32Cube/Repository/STM32Cube_FW_F4_V1.10.0/Drivers/STM32F4xx_HAL_Driver/Src/stm32f4xx_hal_flash.c **** @endverbatim
 536:/home/vadimstupakov/Data/STM32/STM32Cube/Repository/STM32Cube_FW_F4_V1.10.0/Drivers/STM32F4xx_HAL_Driver/Src/stm32f4xx_hal_flash.c ****   * @{
 537:/home/vadimstupakov/Data/STM32/STM32Cube/Repository/STM32Cube_FW_F4_V1.10.0/Drivers/STM32F4xx_HAL_Driver/Src/stm32f4xx_hal_flash.c ****   */
 538:/home/vadimstupakov/Data/STM32/STM32Cube/Repository/STM32Cube_FW_F4_V1.10.0/Drivers/STM32F4xx_HAL_Driver/Src/stm32f4xx_hal_flash.c **** 
 539:/home/vadimstupakov/Data/STM32/STM32Cube/Repository/STM32Cube_FW_F4_V1.10.0/Drivers/STM32F4xx_HAL_Driver/Src/stm32f4xx_hal_flash.c **** /**
 540:/home/vadimstupakov/Data/STM32/STM32Cube/Repository/STM32Cube_FW_F4_V1.10.0/Drivers/STM32F4xx_HAL_Driver/Src/stm32f4xx_hal_flash.c ****   * @brief  Get the specific FLASH error flag.
 541:/home/vadimstupakov/Data/STM32/STM32Cube/Repository/STM32Cube_FW_F4_V1.10.0/Drivers/STM32F4xx_HAL_Driver/Src/stm32f4xx_hal_flash.c ****   * @retval FLASH_ErrorCode: The returned value can be a combination of:
 542:/home/vadimstupakov/Data/STM32/STM32Cube/Repository/STM32Cube_FW_F4_V1.10.0/Drivers/STM32F4xx_HAL_Driver/Src/stm32f4xx_hal_flash.c ****   *            @arg HAL_FLASH_ERROR_RD: FLASH Read Protection error flag (PCROP)
 543:/home/vadimstupakov/Data/STM32/STM32Cube/Repository/STM32Cube_FW_F4_V1.10.0/Drivers/STM32F4xx_HAL_Driver/Src/stm32f4xx_hal_flash.c ****   *            @arg HAL_FLASH_ERROR_PGS: FLASH Programming Sequence error flag 
 544:/home/vadimstupakov/Data/STM32/STM32Cube/Repository/STM32Cube_FW_F4_V1.10.0/Drivers/STM32F4xx_HAL_Driver/Src/stm32f4xx_hal_flash.c ****   *            @arg HAL_FLASH_ERROR_PGP: FLASH Programming Parallelism error flag  
 545:/home/vadimstupakov/Data/STM32/STM32Cube/Repository/STM32Cube_FW_F4_V1.10.0/Drivers/STM32F4xx_HAL_Driver/Src/stm32f4xx_hal_flash.c ****   *            @arg HAL_FLASH_ERROR_PGA: FLASH Programming Alignment error flag
 546:/home/vadimstupakov/Data/STM32/STM32Cube/Repository/STM32Cube_FW_F4_V1.10.0/Drivers/STM32F4xx_HAL_Driver/Src/stm32f4xx_hal_flash.c ****   *            @arg HAL_FLASH_ERROR_WRP: FLASH Write protected error flag
 547:/home/vadimstupakov/Data/STM32/STM32Cube/Repository/STM32Cube_FW_F4_V1.10.0/Drivers/STM32F4xx_HAL_Driver/Src/stm32f4xx_hal_flash.c ****   *            @arg HAL_FLASH_ERROR_OPERATION: FLASH operation Error flag 
 548:/home/vadimstupakov/Data/STM32/STM32Cube/Repository/STM32Cube_FW_F4_V1.10.0/Drivers/STM32F4xx_HAL_Driver/Src/stm32f4xx_hal_flash.c ****   */
 549:/home/vadimstupakov/Data/STM32/STM32Cube/Repository/STM32Cube_FW_F4_V1.10.0/Drivers/STM32F4xx_HAL_Driver/Src/stm32f4xx_hal_flash.c **** uint32_t HAL_FLASH_GetError(void)
 550:/home/vadimstupakov/Data/STM32/STM32Cube/Repository/STM32Cube_FW_F4_V1.10.0/Drivers/STM32F4xx_HAL_Driver/Src/stm32f4xx_hal_flash.c **** { 
ARM GAS  /tmp/ccqDtxhv.s 			page 25


 838              		.loc 1 550 0
 839              		.cfi_startproc
 840              		@ args = 0, pretend = 0, frame = 0
 841              		@ frame_needed = 1, uses_anonymous_args = 0
 842              		@ link register save eliminated.
 843 0000 80B4     		push	{r7}
 844              	.LCFI45:
 845              		.cfi_def_cfa_offset 4
 846              		.cfi_offset 7, -4
 847 0002 00AF     		add	r7, sp, #0
 848              	.LCFI46:
 849              		.cfi_def_cfa_register 7
 551:/home/vadimstupakov/Data/STM32/STM32Cube/Repository/STM32Cube_FW_F4_V1.10.0/Drivers/STM32F4xx_HAL_Driver/Src/stm32f4xx_hal_flash.c ****    return pFlash.ErrorCode;
 850              		.loc 1 551 0
 851 0004 034B     		ldr	r3, .L62
 852 0006 DB69     		ldr	r3, [r3, #28]
 552:/home/vadimstupakov/Data/STM32/STM32Cube/Repository/STM32Cube_FW_F4_V1.10.0/Drivers/STM32F4xx_HAL_Driver/Src/stm32f4xx_hal_flash.c **** }  
 853              		.loc 1 552 0
 854 0008 1846     		mov	r0, r3
 855 000a BD46     		mov	sp, r7
 856              	.LCFI47:
 857              		.cfi_def_cfa_register 13
 858              		@ sp needed
 859 000c 5DF8047B 		ldr	r7, [sp], #4
 860              	.LCFI48:
 861              		.cfi_restore 7
 862              		.cfi_def_cfa_offset 0
 863 0010 7047     		bx	lr
 864              	.L63:
 865 0012 00BF     		.align	2
 866              	.L62:
 867 0014 00000000 		.word	pFlash
 868              		.cfi_endproc
 869              	.LFE135:
 871              		.section	.text.FLASH_WaitForLastOperation,"ax",%progbits
 872              		.align	2
 873              		.global	FLASH_WaitForLastOperation
 874              		.thumb
 875              		.thumb_func
 877              	FLASH_WaitForLastOperation:
 878              	.LFB136:
 553:/home/vadimstupakov/Data/STM32/STM32Cube/Repository/STM32Cube_FW_F4_V1.10.0/Drivers/STM32F4xx_HAL_Driver/Src/stm32f4xx_hal_flash.c ****   
 554:/home/vadimstupakov/Data/STM32/STM32Cube/Repository/STM32Cube_FW_F4_V1.10.0/Drivers/STM32F4xx_HAL_Driver/Src/stm32f4xx_hal_flash.c **** /**
 555:/home/vadimstupakov/Data/STM32/STM32Cube/Repository/STM32Cube_FW_F4_V1.10.0/Drivers/STM32F4xx_HAL_Driver/Src/stm32f4xx_hal_flash.c ****   * @}
 556:/home/vadimstupakov/Data/STM32/STM32Cube/Repository/STM32Cube_FW_F4_V1.10.0/Drivers/STM32F4xx_HAL_Driver/Src/stm32f4xx_hal_flash.c ****   */    
 557:/home/vadimstupakov/Data/STM32/STM32Cube/Repository/STM32Cube_FW_F4_V1.10.0/Drivers/STM32F4xx_HAL_Driver/Src/stm32f4xx_hal_flash.c **** 
 558:/home/vadimstupakov/Data/STM32/STM32Cube/Repository/STM32Cube_FW_F4_V1.10.0/Drivers/STM32F4xx_HAL_Driver/Src/stm32f4xx_hal_flash.c **** /**
 559:/home/vadimstupakov/Data/STM32/STM32Cube/Repository/STM32Cube_FW_F4_V1.10.0/Drivers/STM32F4xx_HAL_Driver/Src/stm32f4xx_hal_flash.c ****   * @brief  Wait for a FLASH operation to complete.
 560:/home/vadimstupakov/Data/STM32/STM32Cube/Repository/STM32Cube_FW_F4_V1.10.0/Drivers/STM32F4xx_HAL_Driver/Src/stm32f4xx_hal_flash.c ****   * @param  Timeout: maximum flash operationtimeout
 561:/home/vadimstupakov/Data/STM32/STM32Cube/Repository/STM32Cube_FW_F4_V1.10.0/Drivers/STM32F4xx_HAL_Driver/Src/stm32f4xx_hal_flash.c ****   * @retval HAL Status
 562:/home/vadimstupakov/Data/STM32/STM32Cube/Repository/STM32Cube_FW_F4_V1.10.0/Drivers/STM32F4xx_HAL_Driver/Src/stm32f4xx_hal_flash.c ****   */
 563:/home/vadimstupakov/Data/STM32/STM32Cube/Repository/STM32Cube_FW_F4_V1.10.0/Drivers/STM32F4xx_HAL_Driver/Src/stm32f4xx_hal_flash.c **** HAL_StatusTypeDef FLASH_WaitForLastOperation(uint32_t Timeout)
 564:/home/vadimstupakov/Data/STM32/STM32Cube/Repository/STM32Cube_FW_F4_V1.10.0/Drivers/STM32F4xx_HAL_Driver/Src/stm32f4xx_hal_flash.c **** { 
 879              		.loc 1 564 0
 880              		.cfi_startproc
 881              		@ args = 0, pretend = 0, frame = 16
 882              		@ frame_needed = 1, uses_anonymous_args = 0
ARM GAS  /tmp/ccqDtxhv.s 			page 26


 883 0000 80B5     		push	{r7, lr}
 884              	.LCFI49:
 885              		.cfi_def_cfa_offset 8
 886              		.cfi_offset 7, -8
 887              		.cfi_offset 14, -4
 888 0002 84B0     		sub	sp, sp, #16
 889              	.LCFI50:
 890              		.cfi_def_cfa_offset 24
 891 0004 00AF     		add	r7, sp, #0
 892              	.LCFI51:
 893              		.cfi_def_cfa_register 7
 894 0006 7860     		str	r0, [r7, #4]
 565:/home/vadimstupakov/Data/STM32/STM32Cube/Repository/STM32Cube_FW_F4_V1.10.0/Drivers/STM32F4xx_HAL_Driver/Src/stm32f4xx_hal_flash.c ****   uint32_t tickstart = 0;
 895              		.loc 1 565 0
 896 0008 0023     		movs	r3, #0
 897 000a FB60     		str	r3, [r7, #12]
 566:/home/vadimstupakov/Data/STM32/STM32Cube/Repository/STM32Cube_FW_F4_V1.10.0/Drivers/STM32F4xx_HAL_Driver/Src/stm32f4xx_hal_flash.c ****   
 567:/home/vadimstupakov/Data/STM32/STM32Cube/Repository/STM32Cube_FW_F4_V1.10.0/Drivers/STM32F4xx_HAL_Driver/Src/stm32f4xx_hal_flash.c ****   /* Clear Error Code */
 568:/home/vadimstupakov/Data/STM32/STM32Cube/Repository/STM32Cube_FW_F4_V1.10.0/Drivers/STM32F4xx_HAL_Driver/Src/stm32f4xx_hal_flash.c ****   pFlash.ErrorCode = HAL_FLASH_ERROR_NONE;
 898              		.loc 1 568 0
 899 000c 1B4B     		ldr	r3, .L71
 900 000e 0022     		movs	r2, #0
 901 0010 DA61     		str	r2, [r3, #28]
 569:/home/vadimstupakov/Data/STM32/STM32Cube/Repository/STM32Cube_FW_F4_V1.10.0/Drivers/STM32F4xx_HAL_Driver/Src/stm32f4xx_hal_flash.c ****   
 570:/home/vadimstupakov/Data/STM32/STM32Cube/Repository/STM32Cube_FW_F4_V1.10.0/Drivers/STM32F4xx_HAL_Driver/Src/stm32f4xx_hal_flash.c ****   /* Wait for the FLASH operation to complete by polling on BUSY flag to be reset.
 571:/home/vadimstupakov/Data/STM32/STM32Cube/Repository/STM32Cube_FW_F4_V1.10.0/Drivers/STM32F4xx_HAL_Driver/Src/stm32f4xx_hal_flash.c ****      Even if the FLASH operation fails, the BUSY flag will be reset and an error
 572:/home/vadimstupakov/Data/STM32/STM32Cube/Repository/STM32Cube_FW_F4_V1.10.0/Drivers/STM32F4xx_HAL_Driver/Src/stm32f4xx_hal_flash.c ****      flag will be set */
 573:/home/vadimstupakov/Data/STM32/STM32Cube/Repository/STM32Cube_FW_F4_V1.10.0/Drivers/STM32F4xx_HAL_Driver/Src/stm32f4xx_hal_flash.c ****   /* Get tick */
 574:/home/vadimstupakov/Data/STM32/STM32Cube/Repository/STM32Cube_FW_F4_V1.10.0/Drivers/STM32F4xx_HAL_Driver/Src/stm32f4xx_hal_flash.c ****   tickstart = HAL_GetTick();
 902              		.loc 1 574 0
 903 0012 FFF7FEFF 		bl	HAL_GetTick
 904 0016 F860     		str	r0, [r7, #12]
 575:/home/vadimstupakov/Data/STM32/STM32Cube/Repository/STM32Cube_FW_F4_V1.10.0/Drivers/STM32F4xx_HAL_Driver/Src/stm32f4xx_hal_flash.c **** 
 576:/home/vadimstupakov/Data/STM32/STM32Cube/Repository/STM32Cube_FW_F4_V1.10.0/Drivers/STM32F4xx_HAL_Driver/Src/stm32f4xx_hal_flash.c ****   while(__HAL_FLASH_GET_FLAG(FLASH_FLAG_BSY) != RESET) 
 905              		.loc 1 576 0
 906 0018 10E0     		b	.L65
 907              	.L68:
 577:/home/vadimstupakov/Data/STM32/STM32Cube/Repository/STM32Cube_FW_F4_V1.10.0/Drivers/STM32F4xx_HAL_Driver/Src/stm32f4xx_hal_flash.c ****   { 
 578:/home/vadimstupakov/Data/STM32/STM32Cube/Repository/STM32Cube_FW_F4_V1.10.0/Drivers/STM32F4xx_HAL_Driver/Src/stm32f4xx_hal_flash.c ****     if(Timeout != HAL_MAX_DELAY)
 908              		.loc 1 578 0
 909 001a 7B68     		ldr	r3, [r7, #4]
 910 001c B3F1FF3F 		cmp	r3, #-1
 911 0020 0CD0     		beq	.L65
 579:/home/vadimstupakov/Data/STM32/STM32Cube/Repository/STM32Cube_FW_F4_V1.10.0/Drivers/STM32F4xx_HAL_Driver/Src/stm32f4xx_hal_flash.c ****     {
 580:/home/vadimstupakov/Data/STM32/STM32Cube/Repository/STM32Cube_FW_F4_V1.10.0/Drivers/STM32F4xx_HAL_Driver/Src/stm32f4xx_hal_flash.c ****       if((Timeout == 0)||((HAL_GetTick() - tickstart ) > Timeout))
 912              		.loc 1 580 0
 913 0022 7B68     		ldr	r3, [r7, #4]
 914 0024 002B     		cmp	r3, #0
 915 0026 07D0     		beq	.L66
 916              		.loc 1 580 0 is_stmt 0 discriminator 1
 917 0028 FFF7FEFF 		bl	HAL_GetTick
 918 002c 0246     		mov	r2, r0
 919 002e FB68     		ldr	r3, [r7, #12]
 920 0030 D21A     		subs	r2, r2, r3
 921 0032 7B68     		ldr	r3, [r7, #4]
 922 0034 9A42     		cmp	r2, r3
 923 0036 01D9     		bls	.L65
ARM GAS  /tmp/ccqDtxhv.s 			page 27


 924              	.L66:
 581:/home/vadimstupakov/Data/STM32/STM32Cube/Repository/STM32Cube_FW_F4_V1.10.0/Drivers/STM32F4xx_HAL_Driver/Src/stm32f4xx_hal_flash.c ****       {
 582:/home/vadimstupakov/Data/STM32/STM32Cube/Repository/STM32Cube_FW_F4_V1.10.0/Drivers/STM32F4xx_HAL_Driver/Src/stm32f4xx_hal_flash.c ****         return HAL_TIMEOUT;
 925              		.loc 1 582 0 is_stmt 1
 926 0038 0323     		movs	r3, #3
 927 003a 1AE0     		b	.L67
 928              	.L65:
 576:/home/vadimstupakov/Data/STM32/STM32Cube/Repository/STM32Cube_FW_F4_V1.10.0/Drivers/STM32F4xx_HAL_Driver/Src/stm32f4xx_hal_flash.c ****   { 
 929              		.loc 1 576 0
 930 003c 104B     		ldr	r3, .L71+4
 931 003e DB68     		ldr	r3, [r3, #12]
 932 0040 03F48033 		and	r3, r3, #65536
 933 0044 002B     		cmp	r3, #0
 934 0046 E8D1     		bne	.L68
 583:/home/vadimstupakov/Data/STM32/STM32Cube/Repository/STM32Cube_FW_F4_V1.10.0/Drivers/STM32F4xx_HAL_Driver/Src/stm32f4xx_hal_flash.c ****       }
 584:/home/vadimstupakov/Data/STM32/STM32Cube/Repository/STM32Cube_FW_F4_V1.10.0/Drivers/STM32F4xx_HAL_Driver/Src/stm32f4xx_hal_flash.c ****     } 
 585:/home/vadimstupakov/Data/STM32/STM32Cube/Repository/STM32Cube_FW_F4_V1.10.0/Drivers/STM32F4xx_HAL_Driver/Src/stm32f4xx_hal_flash.c ****   }
 586:/home/vadimstupakov/Data/STM32/STM32Cube/Repository/STM32Cube_FW_F4_V1.10.0/Drivers/STM32F4xx_HAL_Driver/Src/stm32f4xx_hal_flash.c **** 
 587:/home/vadimstupakov/Data/STM32/STM32Cube/Repository/STM32Cube_FW_F4_V1.10.0/Drivers/STM32F4xx_HAL_Driver/Src/stm32f4xx_hal_flash.c ****   /* Check FLASH End of Operation flag  */
 588:/home/vadimstupakov/Data/STM32/STM32Cube/Repository/STM32Cube_FW_F4_V1.10.0/Drivers/STM32F4xx_HAL_Driver/Src/stm32f4xx_hal_flash.c ****   if (__HAL_FLASH_GET_FLAG(FLASH_FLAG_EOP))
 935              		.loc 1 588 0
 936 0048 0D4B     		ldr	r3, .L71+4
 937 004a DB68     		ldr	r3, [r3, #12]
 938 004c 03F00103 		and	r3, r3, #1
 939 0050 002B     		cmp	r3, #0
 940 0052 02D0     		beq	.L69
 589:/home/vadimstupakov/Data/STM32/STM32Cube/Repository/STM32Cube_FW_F4_V1.10.0/Drivers/STM32F4xx_HAL_Driver/Src/stm32f4xx_hal_flash.c ****   {
 590:/home/vadimstupakov/Data/STM32/STM32Cube/Repository/STM32Cube_FW_F4_V1.10.0/Drivers/STM32F4xx_HAL_Driver/Src/stm32f4xx_hal_flash.c ****     /* Clear FLASH End of Operation pending bit */
 591:/home/vadimstupakov/Data/STM32/STM32Cube/Repository/STM32Cube_FW_F4_V1.10.0/Drivers/STM32F4xx_HAL_Driver/Src/stm32f4xx_hal_flash.c ****     __HAL_FLASH_CLEAR_FLAG(FLASH_FLAG_EOP);
 941              		.loc 1 591 0
 942 0054 0A4B     		ldr	r3, .L71+4
 943 0056 0122     		movs	r2, #1
 944 0058 DA60     		str	r2, [r3, #12]
 945              	.L69:
 592:/home/vadimstupakov/Data/STM32/STM32Cube/Repository/STM32Cube_FW_F4_V1.10.0/Drivers/STM32F4xx_HAL_Driver/Src/stm32f4xx_hal_flash.c ****   }
 593:/home/vadimstupakov/Data/STM32/STM32Cube/Repository/STM32Cube_FW_F4_V1.10.0/Drivers/STM32F4xx_HAL_Driver/Src/stm32f4xx_hal_flash.c ****   
 594:/home/vadimstupakov/Data/STM32/STM32Cube/Repository/STM32Cube_FW_F4_V1.10.0/Drivers/STM32F4xx_HAL_Driver/Src/stm32f4xx_hal_flash.c ****   if(__HAL_FLASH_GET_FLAG((FLASH_FLAG_OPERR | FLASH_FLAG_WRPERR | FLASH_FLAG_PGAERR | \
 946              		.loc 1 594 0
 947 005a 094B     		ldr	r3, .L71+4
 948 005c DB68     		ldr	r3, [r3, #12]
 949 005e 03F4F973 		and	r3, r3, #498
 950 0062 B3F5F97F 		cmp	r3, #498
 951 0066 03D1     		bne	.L70
 595:/home/vadimstupakov/Data/STM32/STM32Cube/Repository/STM32Cube_FW_F4_V1.10.0/Drivers/STM32F4xx_HAL_Driver/Src/stm32f4xx_hal_flash.c ****                            FLASH_FLAG_PGPERR | FLASH_FLAG_PGSERR | FLASH_FLAG_RDERR)) != RESET)
 596:/home/vadimstupakov/Data/STM32/STM32Cube/Repository/STM32Cube_FW_F4_V1.10.0/Drivers/STM32F4xx_HAL_Driver/Src/stm32f4xx_hal_flash.c ****   {
 597:/home/vadimstupakov/Data/STM32/STM32Cube/Repository/STM32Cube_FW_F4_V1.10.0/Drivers/STM32F4xx_HAL_Driver/Src/stm32f4xx_hal_flash.c ****     /*Save the error code*/
 598:/home/vadimstupakov/Data/STM32/STM32Cube/Repository/STM32Cube_FW_F4_V1.10.0/Drivers/STM32F4xx_HAL_Driver/Src/stm32f4xx_hal_flash.c ****     FLASH_SetErrorCode();
 952              		.loc 1 598 0
 953 0068 FFF7FEFF 		bl	FLASH_SetErrorCode
 599:/home/vadimstupakov/Data/STM32/STM32Cube/Repository/STM32Cube_FW_F4_V1.10.0/Drivers/STM32F4xx_HAL_Driver/Src/stm32f4xx_hal_flash.c ****     return HAL_ERROR;
 954              		.loc 1 599 0
 955 006c 0123     		movs	r3, #1
 956 006e 00E0     		b	.L67
 957              	.L70:
 600:/home/vadimstupakov/Data/STM32/STM32Cube/Repository/STM32Cube_FW_F4_V1.10.0/Drivers/STM32F4xx_HAL_Driver/Src/stm32f4xx_hal_flash.c ****   }
 601:/home/vadimstupakov/Data/STM32/STM32Cube/Repository/STM32Cube_FW_F4_V1.10.0/Drivers/STM32F4xx_HAL_Driver/Src/stm32f4xx_hal_flash.c **** 
 602:/home/vadimstupakov/Data/STM32/STM32Cube/Repository/STM32Cube_FW_F4_V1.10.0/Drivers/STM32F4xx_HAL_Driver/Src/stm32f4xx_hal_flash.c ****   /* If there is no error flag set */
ARM GAS  /tmp/ccqDtxhv.s 			page 28


 603:/home/vadimstupakov/Data/STM32/STM32Cube/Repository/STM32Cube_FW_F4_V1.10.0/Drivers/STM32F4xx_HAL_Driver/Src/stm32f4xx_hal_flash.c ****   return HAL_OK;
 958              		.loc 1 603 0
 959 0070 0023     		movs	r3, #0
 960              	.L67:
 604:/home/vadimstupakov/Data/STM32/STM32Cube/Repository/STM32Cube_FW_F4_V1.10.0/Drivers/STM32F4xx_HAL_Driver/Src/stm32f4xx_hal_flash.c ****   
 605:/home/vadimstupakov/Data/STM32/STM32Cube/Repository/STM32Cube_FW_F4_V1.10.0/Drivers/STM32F4xx_HAL_Driver/Src/stm32f4xx_hal_flash.c **** }  
 961              		.loc 1 605 0
 962 0072 1846     		mov	r0, r3
 963 0074 1037     		adds	r7, r7, #16
 964              	.LCFI52:
 965              		.cfi_def_cfa_offset 8
 966 0076 BD46     		mov	sp, r7
 967              	.LCFI53:
 968              		.cfi_def_cfa_register 13
 969              		@ sp needed
 970 0078 80BD     		pop	{r7, pc}
 971              	.L72:
 972 007a 00BF     		.align	2
 973              	.L71:
 974 007c 00000000 		.word	pFlash
 975 0080 003C0240 		.word	1073888256
 976              		.cfi_endproc
 977              	.LFE136:
 979              		.section	.text.FLASH_Program_DoubleWord,"ax",%progbits
 980              		.align	2
 981              		.thumb
 982              		.thumb_func
 984              	FLASH_Program_DoubleWord:
 985              	.LFB137:
 606:/home/vadimstupakov/Data/STM32/STM32Cube/Repository/STM32Cube_FW_F4_V1.10.0/Drivers/STM32F4xx_HAL_Driver/Src/stm32f4xx_hal_flash.c **** 
 607:/home/vadimstupakov/Data/STM32/STM32Cube/Repository/STM32Cube_FW_F4_V1.10.0/Drivers/STM32F4xx_HAL_Driver/Src/stm32f4xx_hal_flash.c **** /**
 608:/home/vadimstupakov/Data/STM32/STM32Cube/Repository/STM32Cube_FW_F4_V1.10.0/Drivers/STM32F4xx_HAL_Driver/Src/stm32f4xx_hal_flash.c ****   * @brief  Program a double word (64-bit) at a specified address.
 609:/home/vadimstupakov/Data/STM32/STM32Cube/Repository/STM32Cube_FW_F4_V1.10.0/Drivers/STM32F4xx_HAL_Driver/Src/stm32f4xx_hal_flash.c ****   * @note   This function must be used when the device voltage range is from
 610:/home/vadimstupakov/Data/STM32/STM32Cube/Repository/STM32Cube_FW_F4_V1.10.0/Drivers/STM32F4xx_HAL_Driver/Src/stm32f4xx_hal_flash.c ****   *         2.7V to 3.6V and Vpp in the range 7V to 9V.
 611:/home/vadimstupakov/Data/STM32/STM32Cube/Repository/STM32Cube_FW_F4_V1.10.0/Drivers/STM32F4xx_HAL_Driver/Src/stm32f4xx_hal_flash.c ****   *
 612:/home/vadimstupakov/Data/STM32/STM32Cube/Repository/STM32Cube_FW_F4_V1.10.0/Drivers/STM32F4xx_HAL_Driver/Src/stm32f4xx_hal_flash.c ****   * @note   If an erase and a program operations are requested simultaneously,    
 613:/home/vadimstupakov/Data/STM32/STM32Cube/Repository/STM32Cube_FW_F4_V1.10.0/Drivers/STM32F4xx_HAL_Driver/Src/stm32f4xx_hal_flash.c ****   *         the erase operation is performed before the program one.
 614:/home/vadimstupakov/Data/STM32/STM32Cube/Repository/STM32Cube_FW_F4_V1.10.0/Drivers/STM32F4xx_HAL_Driver/Src/stm32f4xx_hal_flash.c ****   *  
 615:/home/vadimstupakov/Data/STM32/STM32Cube/Repository/STM32Cube_FW_F4_V1.10.0/Drivers/STM32F4xx_HAL_Driver/Src/stm32f4xx_hal_flash.c ****   * @param  Address: specifies the address to be programmed.
 616:/home/vadimstupakov/Data/STM32/STM32Cube/Repository/STM32Cube_FW_F4_V1.10.0/Drivers/STM32F4xx_HAL_Driver/Src/stm32f4xx_hal_flash.c ****   * @param  Data: specifies the data to be programmed.
 617:/home/vadimstupakov/Data/STM32/STM32Cube/Repository/STM32Cube_FW_F4_V1.10.0/Drivers/STM32F4xx_HAL_Driver/Src/stm32f4xx_hal_flash.c ****   * @retval None
 618:/home/vadimstupakov/Data/STM32/STM32Cube/Repository/STM32Cube_FW_F4_V1.10.0/Drivers/STM32F4xx_HAL_Driver/Src/stm32f4xx_hal_flash.c ****   */
 619:/home/vadimstupakov/Data/STM32/STM32Cube/Repository/STM32Cube_FW_F4_V1.10.0/Drivers/STM32F4xx_HAL_Driver/Src/stm32f4xx_hal_flash.c **** static void FLASH_Program_DoubleWord(uint32_t Address, uint64_t Data)
 620:/home/vadimstupakov/Data/STM32/STM32Cube/Repository/STM32Cube_FW_F4_V1.10.0/Drivers/STM32F4xx_HAL_Driver/Src/stm32f4xx_hal_flash.c **** {
 986              		.loc 1 620 0
 987              		.cfi_startproc
 988              		@ args = 0, pretend = 0, frame = 16
 989              		@ frame_needed = 1, uses_anonymous_args = 0
 990              		@ link register save eliminated.
 991 0000 80B4     		push	{r7}
 992              	.LCFI54:
 993              		.cfi_def_cfa_offset 4
 994              		.cfi_offset 7, -4
 995 0002 85B0     		sub	sp, sp, #20
 996              	.LCFI55:
 997              		.cfi_def_cfa_offset 24
 998 0004 00AF     		add	r7, sp, #0
ARM GAS  /tmp/ccqDtxhv.s 			page 29


 999              	.LCFI56:
 1000              		.cfi_def_cfa_register 7
 1001 0006 F860     		str	r0, [r7, #12]
 1002 0008 C7E90023 		strd	r2, [r7]
 621:/home/vadimstupakov/Data/STM32/STM32Cube/Repository/STM32Cube_FW_F4_V1.10.0/Drivers/STM32F4xx_HAL_Driver/Src/stm32f4xx_hal_flash.c ****   /* Check the parameters */
 622:/home/vadimstupakov/Data/STM32/STM32Cube/Repository/STM32Cube_FW_F4_V1.10.0/Drivers/STM32F4xx_HAL_Driver/Src/stm32f4xx_hal_flash.c ****   assert_param(IS_FLASH_ADDRESS(Address));
 623:/home/vadimstupakov/Data/STM32/STM32Cube/Repository/STM32Cube_FW_F4_V1.10.0/Drivers/STM32F4xx_HAL_Driver/Src/stm32f4xx_hal_flash.c ****   
 624:/home/vadimstupakov/Data/STM32/STM32Cube/Repository/STM32Cube_FW_F4_V1.10.0/Drivers/STM32F4xx_HAL_Driver/Src/stm32f4xx_hal_flash.c ****   /* If the previous operation is completed, proceed to program the new data */
 625:/home/vadimstupakov/Data/STM32/STM32Cube/Repository/STM32Cube_FW_F4_V1.10.0/Drivers/STM32F4xx_HAL_Driver/Src/stm32f4xx_hal_flash.c ****   CLEAR_BIT(FLASH->CR, FLASH_CR_PSIZE);
 1003              		.loc 1 625 0
 1004 000c 0D4A     		ldr	r2, .L74
 1005 000e 0D4B     		ldr	r3, .L74
 1006 0010 1B69     		ldr	r3, [r3, #16]
 1007 0012 23F44073 		bic	r3, r3, #768
 1008 0016 1361     		str	r3, [r2, #16]
 626:/home/vadimstupakov/Data/STM32/STM32Cube/Repository/STM32Cube_FW_F4_V1.10.0/Drivers/STM32F4xx_HAL_Driver/Src/stm32f4xx_hal_flash.c ****   FLASH->CR |= FLASH_PSIZE_DOUBLE_WORD;
 1009              		.loc 1 626 0
 1010 0018 0A4A     		ldr	r2, .L74
 1011 001a 0A4B     		ldr	r3, .L74
 1012 001c 1B69     		ldr	r3, [r3, #16]
 1013 001e 43F44073 		orr	r3, r3, #768
 1014 0022 1361     		str	r3, [r2, #16]
 627:/home/vadimstupakov/Data/STM32/STM32Cube/Repository/STM32Cube_FW_F4_V1.10.0/Drivers/STM32F4xx_HAL_Driver/Src/stm32f4xx_hal_flash.c ****   FLASH->CR |= FLASH_CR_PG;
 1015              		.loc 1 627 0
 1016 0024 074A     		ldr	r2, .L74
 1017 0026 074B     		ldr	r3, .L74
 1018 0028 1B69     		ldr	r3, [r3, #16]
 1019 002a 43F00103 		orr	r3, r3, #1
 1020 002e 1361     		str	r3, [r2, #16]
 628:/home/vadimstupakov/Data/STM32/STM32Cube/Repository/STM32Cube_FW_F4_V1.10.0/Drivers/STM32F4xx_HAL_Driver/Src/stm32f4xx_hal_flash.c **** 
 629:/home/vadimstupakov/Data/STM32/STM32Cube/Repository/STM32Cube_FW_F4_V1.10.0/Drivers/STM32F4xx_HAL_Driver/Src/stm32f4xx_hal_flash.c ****   *(__IO uint64_t*)Address = Data;
 1021              		.loc 1 629 0
 1022 0030 F968     		ldr	r1, [r7, #12]
 1023 0032 D7E90023 		ldrd	r2, [r7]
 1024 0036 C1E90023 		strd	r2, [r1]
 630:/home/vadimstupakov/Data/STM32/STM32Cube/Repository/STM32Cube_FW_F4_V1.10.0/Drivers/STM32F4xx_HAL_Driver/Src/stm32f4xx_hal_flash.c **** }
 1025              		.loc 1 630 0
 1026 003a 1437     		adds	r7, r7, #20
 1027              	.LCFI57:
 1028              		.cfi_def_cfa_offset 4
 1029 003c BD46     		mov	sp, r7
 1030              	.LCFI58:
 1031              		.cfi_def_cfa_register 13
 1032              		@ sp needed
 1033 003e 5DF8047B 		ldr	r7, [sp], #4
 1034              	.LCFI59:
 1035              		.cfi_restore 7
 1036              		.cfi_def_cfa_offset 0
 1037 0042 7047     		bx	lr
 1038              	.L75:
 1039              		.align	2
 1040              	.L74:
 1041 0044 003C0240 		.word	1073888256
 1042              		.cfi_endproc
 1043              	.LFE137:
 1045              		.section	.text.FLASH_Program_Word,"ax",%progbits
 1046              		.align	2
ARM GAS  /tmp/ccqDtxhv.s 			page 30


 1047              		.thumb
 1048              		.thumb_func
 1050              	FLASH_Program_Word:
 1051              	.LFB138:
 631:/home/vadimstupakov/Data/STM32/STM32Cube/Repository/STM32Cube_FW_F4_V1.10.0/Drivers/STM32F4xx_HAL_Driver/Src/stm32f4xx_hal_flash.c **** 
 632:/home/vadimstupakov/Data/STM32/STM32Cube/Repository/STM32Cube_FW_F4_V1.10.0/Drivers/STM32F4xx_HAL_Driver/Src/stm32f4xx_hal_flash.c **** 
 633:/home/vadimstupakov/Data/STM32/STM32Cube/Repository/STM32Cube_FW_F4_V1.10.0/Drivers/STM32F4xx_HAL_Driver/Src/stm32f4xx_hal_flash.c **** /**
 634:/home/vadimstupakov/Data/STM32/STM32Cube/Repository/STM32Cube_FW_F4_V1.10.0/Drivers/STM32F4xx_HAL_Driver/Src/stm32f4xx_hal_flash.c ****   * @brief  Program word (32-bit) at a specified address.
 635:/home/vadimstupakov/Data/STM32/STM32Cube/Repository/STM32Cube_FW_F4_V1.10.0/Drivers/STM32F4xx_HAL_Driver/Src/stm32f4xx_hal_flash.c ****   * @note   This function must be used when the device voltage range is from
 636:/home/vadimstupakov/Data/STM32/STM32Cube/Repository/STM32Cube_FW_F4_V1.10.0/Drivers/STM32F4xx_HAL_Driver/Src/stm32f4xx_hal_flash.c ****   *         2.7V to 3.6V.
 637:/home/vadimstupakov/Data/STM32/STM32Cube/Repository/STM32Cube_FW_F4_V1.10.0/Drivers/STM32F4xx_HAL_Driver/Src/stm32f4xx_hal_flash.c ****   *
 638:/home/vadimstupakov/Data/STM32/STM32Cube/Repository/STM32Cube_FW_F4_V1.10.0/Drivers/STM32F4xx_HAL_Driver/Src/stm32f4xx_hal_flash.c ****   * @note   If an erase and a program operations are requested simultaneously,    
 639:/home/vadimstupakov/Data/STM32/STM32Cube/Repository/STM32Cube_FW_F4_V1.10.0/Drivers/STM32F4xx_HAL_Driver/Src/stm32f4xx_hal_flash.c ****   *         the erase operation is performed before the program one.
 640:/home/vadimstupakov/Data/STM32/STM32Cube/Repository/STM32Cube_FW_F4_V1.10.0/Drivers/STM32F4xx_HAL_Driver/Src/stm32f4xx_hal_flash.c ****   *  
 641:/home/vadimstupakov/Data/STM32/STM32Cube/Repository/STM32Cube_FW_F4_V1.10.0/Drivers/STM32F4xx_HAL_Driver/Src/stm32f4xx_hal_flash.c ****   * @param  Address: specifies the address to be programmed.
 642:/home/vadimstupakov/Data/STM32/STM32Cube/Repository/STM32Cube_FW_F4_V1.10.0/Drivers/STM32F4xx_HAL_Driver/Src/stm32f4xx_hal_flash.c ****   * @param  Data: specifies the data to be programmed.
 643:/home/vadimstupakov/Data/STM32/STM32Cube/Repository/STM32Cube_FW_F4_V1.10.0/Drivers/STM32F4xx_HAL_Driver/Src/stm32f4xx_hal_flash.c ****   * @retval None
 644:/home/vadimstupakov/Data/STM32/STM32Cube/Repository/STM32Cube_FW_F4_V1.10.0/Drivers/STM32F4xx_HAL_Driver/Src/stm32f4xx_hal_flash.c ****   */
 645:/home/vadimstupakov/Data/STM32/STM32Cube/Repository/STM32Cube_FW_F4_V1.10.0/Drivers/STM32F4xx_HAL_Driver/Src/stm32f4xx_hal_flash.c **** static void FLASH_Program_Word(uint32_t Address, uint32_t Data)
 646:/home/vadimstupakov/Data/STM32/STM32Cube/Repository/STM32Cube_FW_F4_V1.10.0/Drivers/STM32F4xx_HAL_Driver/Src/stm32f4xx_hal_flash.c **** {
 1052              		.loc 1 646 0
 1053              		.cfi_startproc
 1054              		@ args = 0, pretend = 0, frame = 8
 1055              		@ frame_needed = 1, uses_anonymous_args = 0
 1056              		@ link register save eliminated.
 1057 0000 80B4     		push	{r7}
 1058              	.LCFI60:
 1059              		.cfi_def_cfa_offset 4
 1060              		.cfi_offset 7, -4
 1061 0002 83B0     		sub	sp, sp, #12
 1062              	.LCFI61:
 1063              		.cfi_def_cfa_offset 16
 1064 0004 00AF     		add	r7, sp, #0
 1065              	.LCFI62:
 1066              		.cfi_def_cfa_register 7
 1067 0006 7860     		str	r0, [r7, #4]
 1068 0008 3960     		str	r1, [r7]
 647:/home/vadimstupakov/Data/STM32/STM32Cube/Repository/STM32Cube_FW_F4_V1.10.0/Drivers/STM32F4xx_HAL_Driver/Src/stm32f4xx_hal_flash.c ****   /* Check the parameters */
 648:/home/vadimstupakov/Data/STM32/STM32Cube/Repository/STM32Cube_FW_F4_V1.10.0/Drivers/STM32F4xx_HAL_Driver/Src/stm32f4xx_hal_flash.c ****   assert_param(IS_FLASH_ADDRESS(Address));
 649:/home/vadimstupakov/Data/STM32/STM32Cube/Repository/STM32Cube_FW_F4_V1.10.0/Drivers/STM32F4xx_HAL_Driver/Src/stm32f4xx_hal_flash.c ****   
 650:/home/vadimstupakov/Data/STM32/STM32Cube/Repository/STM32Cube_FW_F4_V1.10.0/Drivers/STM32F4xx_HAL_Driver/Src/stm32f4xx_hal_flash.c ****   /* If the previous operation is completed, proceed to program the new data */
 651:/home/vadimstupakov/Data/STM32/STM32Cube/Repository/STM32Cube_FW_F4_V1.10.0/Drivers/STM32F4xx_HAL_Driver/Src/stm32f4xx_hal_flash.c ****   CLEAR_BIT(FLASH->CR, FLASH_CR_PSIZE);
 1069              		.loc 1 651 0
 1070 000a 0D4A     		ldr	r2, .L77
 1071 000c 0C4B     		ldr	r3, .L77
 1072 000e 1B69     		ldr	r3, [r3, #16]
 1073 0010 23F44073 		bic	r3, r3, #768
 1074 0014 1361     		str	r3, [r2, #16]
 652:/home/vadimstupakov/Data/STM32/STM32Cube/Repository/STM32Cube_FW_F4_V1.10.0/Drivers/STM32F4xx_HAL_Driver/Src/stm32f4xx_hal_flash.c ****   FLASH->CR |= FLASH_PSIZE_WORD;
 1075              		.loc 1 652 0
 1076 0016 0A4A     		ldr	r2, .L77
 1077 0018 094B     		ldr	r3, .L77
 1078 001a 1B69     		ldr	r3, [r3, #16]
 1079 001c 43F40073 		orr	r3, r3, #512
 1080 0020 1361     		str	r3, [r2, #16]
 653:/home/vadimstupakov/Data/STM32/STM32Cube/Repository/STM32Cube_FW_F4_V1.10.0/Drivers/STM32F4xx_HAL_Driver/Src/stm32f4xx_hal_flash.c ****   FLASH->CR |= FLASH_CR_PG;
 1081              		.loc 1 653 0
ARM GAS  /tmp/ccqDtxhv.s 			page 31


 1082 0022 074A     		ldr	r2, .L77
 1083 0024 064B     		ldr	r3, .L77
 1084 0026 1B69     		ldr	r3, [r3, #16]
 1085 0028 43F00103 		orr	r3, r3, #1
 1086 002c 1361     		str	r3, [r2, #16]
 654:/home/vadimstupakov/Data/STM32/STM32Cube/Repository/STM32Cube_FW_F4_V1.10.0/Drivers/STM32F4xx_HAL_Driver/Src/stm32f4xx_hal_flash.c **** 
 655:/home/vadimstupakov/Data/STM32/STM32Cube/Repository/STM32Cube_FW_F4_V1.10.0/Drivers/STM32F4xx_HAL_Driver/Src/stm32f4xx_hal_flash.c ****   *(__IO uint32_t*)Address = Data;
 1087              		.loc 1 655 0
 1088 002e 7B68     		ldr	r3, [r7, #4]
 1089 0030 3A68     		ldr	r2, [r7]
 1090 0032 1A60     		str	r2, [r3]
 656:/home/vadimstupakov/Data/STM32/STM32Cube/Repository/STM32Cube_FW_F4_V1.10.0/Drivers/STM32F4xx_HAL_Driver/Src/stm32f4xx_hal_flash.c **** }
 1091              		.loc 1 656 0
 1092 0034 0C37     		adds	r7, r7, #12
 1093              	.LCFI63:
 1094              		.cfi_def_cfa_offset 4
 1095 0036 BD46     		mov	sp, r7
 1096              	.LCFI64:
 1097              		.cfi_def_cfa_register 13
 1098              		@ sp needed
 1099 0038 5DF8047B 		ldr	r7, [sp], #4
 1100              	.LCFI65:
 1101              		.cfi_restore 7
 1102              		.cfi_def_cfa_offset 0
 1103 003c 7047     		bx	lr
 1104              	.L78:
 1105 003e 00BF     		.align	2
 1106              	.L77:
 1107 0040 003C0240 		.word	1073888256
 1108              		.cfi_endproc
 1109              	.LFE138:
 1111              		.section	.text.FLASH_Program_HalfWord,"ax",%progbits
 1112              		.align	2
 1113              		.thumb
 1114              		.thumb_func
 1116              	FLASH_Program_HalfWord:
 1117              	.LFB139:
 657:/home/vadimstupakov/Data/STM32/STM32Cube/Repository/STM32Cube_FW_F4_V1.10.0/Drivers/STM32F4xx_HAL_Driver/Src/stm32f4xx_hal_flash.c **** 
 658:/home/vadimstupakov/Data/STM32/STM32Cube/Repository/STM32Cube_FW_F4_V1.10.0/Drivers/STM32F4xx_HAL_Driver/Src/stm32f4xx_hal_flash.c **** /**
 659:/home/vadimstupakov/Data/STM32/STM32Cube/Repository/STM32Cube_FW_F4_V1.10.0/Drivers/STM32F4xx_HAL_Driver/Src/stm32f4xx_hal_flash.c ****   * @brief  Program a half-word (16-bit) at a specified address.
 660:/home/vadimstupakov/Data/STM32/STM32Cube/Repository/STM32Cube_FW_F4_V1.10.0/Drivers/STM32F4xx_HAL_Driver/Src/stm32f4xx_hal_flash.c ****   * @note   This function must be used when the device voltage range is from
 661:/home/vadimstupakov/Data/STM32/STM32Cube/Repository/STM32Cube_FW_F4_V1.10.0/Drivers/STM32F4xx_HAL_Driver/Src/stm32f4xx_hal_flash.c ****   *         2.1V to 3.6V.
 662:/home/vadimstupakov/Data/STM32/STM32Cube/Repository/STM32Cube_FW_F4_V1.10.0/Drivers/STM32F4xx_HAL_Driver/Src/stm32f4xx_hal_flash.c ****   *
 663:/home/vadimstupakov/Data/STM32/STM32Cube/Repository/STM32Cube_FW_F4_V1.10.0/Drivers/STM32F4xx_HAL_Driver/Src/stm32f4xx_hal_flash.c ****   * @note   If an erase and a program operations are requested simultaneously,    
 664:/home/vadimstupakov/Data/STM32/STM32Cube/Repository/STM32Cube_FW_F4_V1.10.0/Drivers/STM32F4xx_HAL_Driver/Src/stm32f4xx_hal_flash.c ****   *         the erase operation is performed before the program one.
 665:/home/vadimstupakov/Data/STM32/STM32Cube/Repository/STM32Cube_FW_F4_V1.10.0/Drivers/STM32F4xx_HAL_Driver/Src/stm32f4xx_hal_flash.c ****   *  
 666:/home/vadimstupakov/Data/STM32/STM32Cube/Repository/STM32Cube_FW_F4_V1.10.0/Drivers/STM32F4xx_HAL_Driver/Src/stm32f4xx_hal_flash.c ****   * @param  Address: specifies the address to be programmed.
 667:/home/vadimstupakov/Data/STM32/STM32Cube/Repository/STM32Cube_FW_F4_V1.10.0/Drivers/STM32F4xx_HAL_Driver/Src/stm32f4xx_hal_flash.c ****   * @param  Data: specifies the data to be programmed.
 668:/home/vadimstupakov/Data/STM32/STM32Cube/Repository/STM32Cube_FW_F4_V1.10.0/Drivers/STM32F4xx_HAL_Driver/Src/stm32f4xx_hal_flash.c ****   * @retval None
 669:/home/vadimstupakov/Data/STM32/STM32Cube/Repository/STM32Cube_FW_F4_V1.10.0/Drivers/STM32F4xx_HAL_Driver/Src/stm32f4xx_hal_flash.c ****   */
 670:/home/vadimstupakov/Data/STM32/STM32Cube/Repository/STM32Cube_FW_F4_V1.10.0/Drivers/STM32F4xx_HAL_Driver/Src/stm32f4xx_hal_flash.c **** static void FLASH_Program_HalfWord(uint32_t Address, uint16_t Data)
 671:/home/vadimstupakov/Data/STM32/STM32Cube/Repository/STM32Cube_FW_F4_V1.10.0/Drivers/STM32F4xx_HAL_Driver/Src/stm32f4xx_hal_flash.c **** {
 1118              		.loc 1 671 0
 1119              		.cfi_startproc
 1120              		@ args = 0, pretend = 0, frame = 8
 1121              		@ frame_needed = 1, uses_anonymous_args = 0
 1122              		@ link register save eliminated.
ARM GAS  /tmp/ccqDtxhv.s 			page 32


 1123 0000 80B4     		push	{r7}
 1124              	.LCFI66:
 1125              		.cfi_def_cfa_offset 4
 1126              		.cfi_offset 7, -4
 1127 0002 83B0     		sub	sp, sp, #12
 1128              	.LCFI67:
 1129              		.cfi_def_cfa_offset 16
 1130 0004 00AF     		add	r7, sp, #0
 1131              	.LCFI68:
 1132              		.cfi_def_cfa_register 7
 1133 0006 7860     		str	r0, [r7, #4]
 1134 0008 0B46     		mov	r3, r1
 1135 000a 7B80     		strh	r3, [r7, #2]	@ movhi
 672:/home/vadimstupakov/Data/STM32/STM32Cube/Repository/STM32Cube_FW_F4_V1.10.0/Drivers/STM32F4xx_HAL_Driver/Src/stm32f4xx_hal_flash.c ****   /* Check the parameters */
 673:/home/vadimstupakov/Data/STM32/STM32Cube/Repository/STM32Cube_FW_F4_V1.10.0/Drivers/STM32F4xx_HAL_Driver/Src/stm32f4xx_hal_flash.c ****   assert_param(IS_FLASH_ADDRESS(Address));
 674:/home/vadimstupakov/Data/STM32/STM32Cube/Repository/STM32Cube_FW_F4_V1.10.0/Drivers/STM32F4xx_HAL_Driver/Src/stm32f4xx_hal_flash.c ****   
 675:/home/vadimstupakov/Data/STM32/STM32Cube/Repository/STM32Cube_FW_F4_V1.10.0/Drivers/STM32F4xx_HAL_Driver/Src/stm32f4xx_hal_flash.c ****   /* If the previous operation is completed, proceed to program the new data */
 676:/home/vadimstupakov/Data/STM32/STM32Cube/Repository/STM32Cube_FW_F4_V1.10.0/Drivers/STM32F4xx_HAL_Driver/Src/stm32f4xx_hal_flash.c ****   CLEAR_BIT(FLASH->CR, FLASH_CR_PSIZE);
 1136              		.loc 1 676 0
 1137 000c 0C4A     		ldr	r2, .L80
 1138 000e 0C4B     		ldr	r3, .L80
 1139 0010 1B69     		ldr	r3, [r3, #16]
 1140 0012 23F44073 		bic	r3, r3, #768
 1141 0016 1361     		str	r3, [r2, #16]
 677:/home/vadimstupakov/Data/STM32/STM32Cube/Repository/STM32Cube_FW_F4_V1.10.0/Drivers/STM32F4xx_HAL_Driver/Src/stm32f4xx_hal_flash.c ****   FLASH->CR |= FLASH_PSIZE_HALF_WORD;
 1142              		.loc 1 677 0
 1143 0018 094A     		ldr	r2, .L80
 1144 001a 094B     		ldr	r3, .L80
 1145 001c 1B69     		ldr	r3, [r3, #16]
 1146 001e 43F48073 		orr	r3, r3, #256
 1147 0022 1361     		str	r3, [r2, #16]
 678:/home/vadimstupakov/Data/STM32/STM32Cube/Repository/STM32Cube_FW_F4_V1.10.0/Drivers/STM32F4xx_HAL_Driver/Src/stm32f4xx_hal_flash.c ****   FLASH->CR |= FLASH_CR_PG;
 1148              		.loc 1 678 0
 1149 0024 064A     		ldr	r2, .L80
 1150 0026 064B     		ldr	r3, .L80
 1151 0028 1B69     		ldr	r3, [r3, #16]
 1152 002a 43F00103 		orr	r3, r3, #1
 1153 002e 1361     		str	r3, [r2, #16]
 679:/home/vadimstupakov/Data/STM32/STM32Cube/Repository/STM32Cube_FW_F4_V1.10.0/Drivers/STM32F4xx_HAL_Driver/Src/stm32f4xx_hal_flash.c **** 
 680:/home/vadimstupakov/Data/STM32/STM32Cube/Repository/STM32Cube_FW_F4_V1.10.0/Drivers/STM32F4xx_HAL_Driver/Src/stm32f4xx_hal_flash.c ****   *(__IO uint16_t*)Address = Data;
 1154              		.loc 1 680 0
 1155 0030 7B68     		ldr	r3, [r7, #4]
 1156 0032 7A88     		ldrh	r2, [r7, #2]	@ movhi
 1157 0034 1A80     		strh	r2, [r3]	@ movhi
 681:/home/vadimstupakov/Data/STM32/STM32Cube/Repository/STM32Cube_FW_F4_V1.10.0/Drivers/STM32F4xx_HAL_Driver/Src/stm32f4xx_hal_flash.c **** }
 1158              		.loc 1 681 0
 1159 0036 0C37     		adds	r7, r7, #12
 1160              	.LCFI69:
 1161              		.cfi_def_cfa_offset 4
 1162 0038 BD46     		mov	sp, r7
 1163              	.LCFI70:
 1164              		.cfi_def_cfa_register 13
 1165              		@ sp needed
 1166 003a 5DF8047B 		ldr	r7, [sp], #4
 1167              	.LCFI71:
 1168              		.cfi_restore 7
 1169              		.cfi_def_cfa_offset 0
ARM GAS  /tmp/ccqDtxhv.s 			page 33


 1170 003e 7047     		bx	lr
 1171              	.L81:
 1172              		.align	2
 1173              	.L80:
 1174 0040 003C0240 		.word	1073888256
 1175              		.cfi_endproc
 1176              	.LFE139:
 1178              		.section	.text.FLASH_Program_Byte,"ax",%progbits
 1179              		.align	2
 1180              		.thumb
 1181              		.thumb_func
 1183              	FLASH_Program_Byte:
 1184              	.LFB140:
 682:/home/vadimstupakov/Data/STM32/STM32Cube/Repository/STM32Cube_FW_F4_V1.10.0/Drivers/STM32F4xx_HAL_Driver/Src/stm32f4xx_hal_flash.c **** 
 683:/home/vadimstupakov/Data/STM32/STM32Cube/Repository/STM32Cube_FW_F4_V1.10.0/Drivers/STM32F4xx_HAL_Driver/Src/stm32f4xx_hal_flash.c **** /**
 684:/home/vadimstupakov/Data/STM32/STM32Cube/Repository/STM32Cube_FW_F4_V1.10.0/Drivers/STM32F4xx_HAL_Driver/Src/stm32f4xx_hal_flash.c ****   * @brief  Program byte (8-bit) at a specified address.
 685:/home/vadimstupakov/Data/STM32/STM32Cube/Repository/STM32Cube_FW_F4_V1.10.0/Drivers/STM32F4xx_HAL_Driver/Src/stm32f4xx_hal_flash.c ****   * @note   This function must be used when the device voltage range is from
 686:/home/vadimstupakov/Data/STM32/STM32Cube/Repository/STM32Cube_FW_F4_V1.10.0/Drivers/STM32F4xx_HAL_Driver/Src/stm32f4xx_hal_flash.c ****   *         1.8V to 3.6V.
 687:/home/vadimstupakov/Data/STM32/STM32Cube/Repository/STM32Cube_FW_F4_V1.10.0/Drivers/STM32F4xx_HAL_Driver/Src/stm32f4xx_hal_flash.c ****   *
 688:/home/vadimstupakov/Data/STM32/STM32Cube/Repository/STM32Cube_FW_F4_V1.10.0/Drivers/STM32F4xx_HAL_Driver/Src/stm32f4xx_hal_flash.c ****   * @note   If an erase and a program operations are requested simultaneously,    
 689:/home/vadimstupakov/Data/STM32/STM32Cube/Repository/STM32Cube_FW_F4_V1.10.0/Drivers/STM32F4xx_HAL_Driver/Src/stm32f4xx_hal_flash.c ****   *         the erase operation is performed before the program one.
 690:/home/vadimstupakov/Data/STM32/STM32Cube/Repository/STM32Cube_FW_F4_V1.10.0/Drivers/STM32F4xx_HAL_Driver/Src/stm32f4xx_hal_flash.c ****   *  
 691:/home/vadimstupakov/Data/STM32/STM32Cube/Repository/STM32Cube_FW_F4_V1.10.0/Drivers/STM32F4xx_HAL_Driver/Src/stm32f4xx_hal_flash.c ****   * @param  Address: specifies the address to be programmed.
 692:/home/vadimstupakov/Data/STM32/STM32Cube/Repository/STM32Cube_FW_F4_V1.10.0/Drivers/STM32F4xx_HAL_Driver/Src/stm32f4xx_hal_flash.c ****   * @param  Data: specifies the data to be programmed.
 693:/home/vadimstupakov/Data/STM32/STM32Cube/Repository/STM32Cube_FW_F4_V1.10.0/Drivers/STM32F4xx_HAL_Driver/Src/stm32f4xx_hal_flash.c ****   * @retval None
 694:/home/vadimstupakov/Data/STM32/STM32Cube/Repository/STM32Cube_FW_F4_V1.10.0/Drivers/STM32F4xx_HAL_Driver/Src/stm32f4xx_hal_flash.c ****   */
 695:/home/vadimstupakov/Data/STM32/STM32Cube/Repository/STM32Cube_FW_F4_V1.10.0/Drivers/STM32F4xx_HAL_Driver/Src/stm32f4xx_hal_flash.c **** static void FLASH_Program_Byte(uint32_t Address, uint8_t Data)
 696:/home/vadimstupakov/Data/STM32/STM32Cube/Repository/STM32Cube_FW_F4_V1.10.0/Drivers/STM32F4xx_HAL_Driver/Src/stm32f4xx_hal_flash.c **** {
 1185              		.loc 1 696 0
 1186              		.cfi_startproc
 1187              		@ args = 0, pretend = 0, frame = 8
 1188              		@ frame_needed = 1, uses_anonymous_args = 0
 1189              		@ link register save eliminated.
 1190 0000 80B4     		push	{r7}
 1191              	.LCFI72:
 1192              		.cfi_def_cfa_offset 4
 1193              		.cfi_offset 7, -4
 1194 0002 83B0     		sub	sp, sp, #12
 1195              	.LCFI73:
 1196              		.cfi_def_cfa_offset 16
 1197 0004 00AF     		add	r7, sp, #0
 1198              	.LCFI74:
 1199              		.cfi_def_cfa_register 7
 1200 0006 7860     		str	r0, [r7, #4]
 1201 0008 0B46     		mov	r3, r1
 1202 000a FB70     		strb	r3, [r7, #3]
 697:/home/vadimstupakov/Data/STM32/STM32Cube/Repository/STM32Cube_FW_F4_V1.10.0/Drivers/STM32F4xx_HAL_Driver/Src/stm32f4xx_hal_flash.c ****   /* Check the parameters */
 698:/home/vadimstupakov/Data/STM32/STM32Cube/Repository/STM32Cube_FW_F4_V1.10.0/Drivers/STM32F4xx_HAL_Driver/Src/stm32f4xx_hal_flash.c ****   assert_param(IS_FLASH_ADDRESS(Address));
 699:/home/vadimstupakov/Data/STM32/STM32Cube/Repository/STM32Cube_FW_F4_V1.10.0/Drivers/STM32F4xx_HAL_Driver/Src/stm32f4xx_hal_flash.c ****   
 700:/home/vadimstupakov/Data/STM32/STM32Cube/Repository/STM32Cube_FW_F4_V1.10.0/Drivers/STM32F4xx_HAL_Driver/Src/stm32f4xx_hal_flash.c ****   /* If the previous operation is completed, proceed to program the new data */
 701:/home/vadimstupakov/Data/STM32/STM32Cube/Repository/STM32Cube_FW_F4_V1.10.0/Drivers/STM32F4xx_HAL_Driver/Src/stm32f4xx_hal_flash.c ****   CLEAR_BIT(FLASH->CR, FLASH_CR_PSIZE);
 1203              		.loc 1 701 0
 1204 000c 0B4A     		ldr	r2, .L83
 1205 000e 0B4B     		ldr	r3, .L83
 1206 0010 1B69     		ldr	r3, [r3, #16]
 1207 0012 23F44073 		bic	r3, r3, #768
 1208 0016 1361     		str	r3, [r2, #16]
ARM GAS  /tmp/ccqDtxhv.s 			page 34


 702:/home/vadimstupakov/Data/STM32/STM32Cube/Repository/STM32Cube_FW_F4_V1.10.0/Drivers/STM32F4xx_HAL_Driver/Src/stm32f4xx_hal_flash.c ****   FLASH->CR |= FLASH_PSIZE_BYTE;
 1209              		.loc 1 702 0
 1210 0018 084A     		ldr	r2, .L83
 1211 001a 084B     		ldr	r3, .L83
 1212 001c 1B69     		ldr	r3, [r3, #16]
 1213 001e 1361     		str	r3, [r2, #16]
 703:/home/vadimstupakov/Data/STM32/STM32Cube/Repository/STM32Cube_FW_F4_V1.10.0/Drivers/STM32F4xx_HAL_Driver/Src/stm32f4xx_hal_flash.c ****   FLASH->CR |= FLASH_CR_PG;
 1214              		.loc 1 703 0
 1215 0020 064A     		ldr	r2, .L83
 1216 0022 064B     		ldr	r3, .L83
 1217 0024 1B69     		ldr	r3, [r3, #16]
 1218 0026 43F00103 		orr	r3, r3, #1
 1219 002a 1361     		str	r3, [r2, #16]
 704:/home/vadimstupakov/Data/STM32/STM32Cube/Repository/STM32Cube_FW_F4_V1.10.0/Drivers/STM32F4xx_HAL_Driver/Src/stm32f4xx_hal_flash.c **** 
 705:/home/vadimstupakov/Data/STM32/STM32Cube/Repository/STM32Cube_FW_F4_V1.10.0/Drivers/STM32F4xx_HAL_Driver/Src/stm32f4xx_hal_flash.c ****   *(__IO uint8_t*)Address = Data;
 1220              		.loc 1 705 0
 1221 002c 7B68     		ldr	r3, [r7, #4]
 1222 002e FA78     		ldrb	r2, [r7, #3]
 1223 0030 1A70     		strb	r2, [r3]
 706:/home/vadimstupakov/Data/STM32/STM32Cube/Repository/STM32Cube_FW_F4_V1.10.0/Drivers/STM32F4xx_HAL_Driver/Src/stm32f4xx_hal_flash.c **** }
 1224              		.loc 1 706 0
 1225 0032 0C37     		adds	r7, r7, #12
 1226              	.LCFI75:
 1227              		.cfi_def_cfa_offset 4
 1228 0034 BD46     		mov	sp, r7
 1229              	.LCFI76:
 1230              		.cfi_def_cfa_register 13
 1231              		@ sp needed
 1232 0036 5DF8047B 		ldr	r7, [sp], #4
 1233              	.LCFI77:
 1234              		.cfi_restore 7
 1235              		.cfi_def_cfa_offset 0
 1236 003a 7047     		bx	lr
 1237              	.L84:
 1238              		.align	2
 1239              	.L83:
 1240 003c 003C0240 		.word	1073888256
 1241              		.cfi_endproc
 1242              	.LFE140:
 1244              		.section	.text.FLASH_SetErrorCode,"ax",%progbits
 1245              		.align	2
 1246              		.thumb
 1247              		.thumb_func
 1249              	FLASH_SetErrorCode:
 1250              	.LFB141:
 707:/home/vadimstupakov/Data/STM32/STM32Cube/Repository/STM32Cube_FW_F4_V1.10.0/Drivers/STM32F4xx_HAL_Driver/Src/stm32f4xx_hal_flash.c **** 
 708:/home/vadimstupakov/Data/STM32/STM32Cube/Repository/STM32Cube_FW_F4_V1.10.0/Drivers/STM32F4xx_HAL_Driver/Src/stm32f4xx_hal_flash.c **** /**
 709:/home/vadimstupakov/Data/STM32/STM32Cube/Repository/STM32Cube_FW_F4_V1.10.0/Drivers/STM32F4xx_HAL_Driver/Src/stm32f4xx_hal_flash.c ****   * @brief  Set the specific FLASH error flag.
 710:/home/vadimstupakov/Data/STM32/STM32Cube/Repository/STM32Cube_FW_F4_V1.10.0/Drivers/STM32F4xx_HAL_Driver/Src/stm32f4xx_hal_flash.c ****   * @retval None
 711:/home/vadimstupakov/Data/STM32/STM32Cube/Repository/STM32Cube_FW_F4_V1.10.0/Drivers/STM32F4xx_HAL_Driver/Src/stm32f4xx_hal_flash.c ****   */
 712:/home/vadimstupakov/Data/STM32/STM32Cube/Repository/STM32Cube_FW_F4_V1.10.0/Drivers/STM32F4xx_HAL_Driver/Src/stm32f4xx_hal_flash.c **** static void FLASH_SetErrorCode(void)
 713:/home/vadimstupakov/Data/STM32/STM32Cube/Repository/STM32Cube_FW_F4_V1.10.0/Drivers/STM32F4xx_HAL_Driver/Src/stm32f4xx_hal_flash.c **** { 
 1251              		.loc 1 713 0
 1252              		.cfi_startproc
 1253              		@ args = 0, pretend = 0, frame = 0
 1254              		@ frame_needed = 1, uses_anonymous_args = 0
 1255              		@ link register save eliminated.
ARM GAS  /tmp/ccqDtxhv.s 			page 35


 1256 0000 80B4     		push	{r7}
 1257              	.LCFI78:
 1258              		.cfi_def_cfa_offset 4
 1259              		.cfi_offset 7, -4
 1260 0002 00AF     		add	r7, sp, #0
 1261              	.LCFI79:
 1262              		.cfi_def_cfa_register 7
 714:/home/vadimstupakov/Data/STM32/STM32Cube/Repository/STM32Cube_FW_F4_V1.10.0/Drivers/STM32F4xx_HAL_Driver/Src/stm32f4xx_hal_flash.c ****   if(__HAL_FLASH_GET_FLAG(FLASH_FLAG_WRPERR) != RESET)
 1263              		.loc 1 714 0
 1264 0004 2F4B     		ldr	r3, .L92
 1265 0006 DB68     		ldr	r3, [r3, #12]
 1266 0008 03F01003 		and	r3, r3, #16
 1267 000c 002B     		cmp	r3, #0
 1268 000e 08D0     		beq	.L86
 715:/home/vadimstupakov/Data/STM32/STM32Cube/Repository/STM32Cube_FW_F4_V1.10.0/Drivers/STM32F4xx_HAL_Driver/Src/stm32f4xx_hal_flash.c ****   {
 716:/home/vadimstupakov/Data/STM32/STM32Cube/Repository/STM32Cube_FW_F4_V1.10.0/Drivers/STM32F4xx_HAL_Driver/Src/stm32f4xx_hal_flash.c ****    pFlash.ErrorCode |= HAL_FLASH_ERROR_WRP;
 1269              		.loc 1 716 0
 1270 0010 2D4B     		ldr	r3, .L92+4
 1271 0012 DB69     		ldr	r3, [r3, #28]
 1272 0014 43F01003 		orr	r3, r3, #16
 1273 0018 2B4A     		ldr	r2, .L92+4
 1274 001a D361     		str	r3, [r2, #28]
 717:/home/vadimstupakov/Data/STM32/STM32Cube/Repository/STM32Cube_FW_F4_V1.10.0/Drivers/STM32F4xx_HAL_Driver/Src/stm32f4xx_hal_flash.c ****    
 718:/home/vadimstupakov/Data/STM32/STM32Cube/Repository/STM32Cube_FW_F4_V1.10.0/Drivers/STM32F4xx_HAL_Driver/Src/stm32f4xx_hal_flash.c ****    /* Clear FLASH write protection error pending bit */
 719:/home/vadimstupakov/Data/STM32/STM32Cube/Repository/STM32Cube_FW_F4_V1.10.0/Drivers/STM32F4xx_HAL_Driver/Src/stm32f4xx_hal_flash.c ****    __HAL_FLASH_CLEAR_FLAG(FLASH_FLAG_WRPERR);
 1275              		.loc 1 719 0
 1276 001c 294B     		ldr	r3, .L92
 1277 001e 1022     		movs	r2, #16
 1278 0020 DA60     		str	r2, [r3, #12]
 1279              	.L86:
 720:/home/vadimstupakov/Data/STM32/STM32Cube/Repository/STM32Cube_FW_F4_V1.10.0/Drivers/STM32F4xx_HAL_Driver/Src/stm32f4xx_hal_flash.c ****   }
 721:/home/vadimstupakov/Data/STM32/STM32Cube/Repository/STM32Cube_FW_F4_V1.10.0/Drivers/STM32F4xx_HAL_Driver/Src/stm32f4xx_hal_flash.c ****   
 722:/home/vadimstupakov/Data/STM32/STM32Cube/Repository/STM32Cube_FW_F4_V1.10.0/Drivers/STM32F4xx_HAL_Driver/Src/stm32f4xx_hal_flash.c ****   if(__HAL_FLASH_GET_FLAG(FLASH_FLAG_PGAERR) != RESET)
 1280              		.loc 1 722 0
 1281 0022 284B     		ldr	r3, .L92
 1282 0024 DB68     		ldr	r3, [r3, #12]
 1283 0026 03F02003 		and	r3, r3, #32
 1284 002a 002B     		cmp	r3, #0
 1285 002c 08D0     		beq	.L87
 723:/home/vadimstupakov/Data/STM32/STM32Cube/Repository/STM32Cube_FW_F4_V1.10.0/Drivers/STM32F4xx_HAL_Driver/Src/stm32f4xx_hal_flash.c ****   {
 724:/home/vadimstupakov/Data/STM32/STM32Cube/Repository/STM32Cube_FW_F4_V1.10.0/Drivers/STM32F4xx_HAL_Driver/Src/stm32f4xx_hal_flash.c ****    pFlash.ErrorCode |= HAL_FLASH_ERROR_PGA;
 1286              		.loc 1 724 0
 1287 002e 264B     		ldr	r3, .L92+4
 1288 0030 DB69     		ldr	r3, [r3, #28]
 1289 0032 43F00803 		orr	r3, r3, #8
 1290 0036 244A     		ldr	r2, .L92+4
 1291 0038 D361     		str	r3, [r2, #28]
 725:/home/vadimstupakov/Data/STM32/STM32Cube/Repository/STM32Cube_FW_F4_V1.10.0/Drivers/STM32F4xx_HAL_Driver/Src/stm32f4xx_hal_flash.c ****    
 726:/home/vadimstupakov/Data/STM32/STM32Cube/Repository/STM32Cube_FW_F4_V1.10.0/Drivers/STM32F4xx_HAL_Driver/Src/stm32f4xx_hal_flash.c ****    /* Clear FLASH Programming alignment error pending bit */
 727:/home/vadimstupakov/Data/STM32/STM32Cube/Repository/STM32Cube_FW_F4_V1.10.0/Drivers/STM32F4xx_HAL_Driver/Src/stm32f4xx_hal_flash.c ****    __HAL_FLASH_CLEAR_FLAG(FLASH_FLAG_PGAERR);
 1292              		.loc 1 727 0
 1293 003a 224B     		ldr	r3, .L92
 1294 003c 2022     		movs	r2, #32
 1295 003e DA60     		str	r2, [r3, #12]
 1296              	.L87:
 728:/home/vadimstupakov/Data/STM32/STM32Cube/Repository/STM32Cube_FW_F4_V1.10.0/Drivers/STM32F4xx_HAL_Driver/Src/stm32f4xx_hal_flash.c ****   }
 729:/home/vadimstupakov/Data/STM32/STM32Cube/Repository/STM32Cube_FW_F4_V1.10.0/Drivers/STM32F4xx_HAL_Driver/Src/stm32f4xx_hal_flash.c ****   
ARM GAS  /tmp/ccqDtxhv.s 			page 36


 730:/home/vadimstupakov/Data/STM32/STM32Cube/Repository/STM32Cube_FW_F4_V1.10.0/Drivers/STM32F4xx_HAL_Driver/Src/stm32f4xx_hal_flash.c ****   if(__HAL_FLASH_GET_FLAG(FLASH_FLAG_PGPERR) != RESET)
 1297              		.loc 1 730 0
 1298 0040 204B     		ldr	r3, .L92
 1299 0042 DB68     		ldr	r3, [r3, #12]
 1300 0044 03F04003 		and	r3, r3, #64
 1301 0048 002B     		cmp	r3, #0
 1302 004a 08D0     		beq	.L88
 731:/home/vadimstupakov/Data/STM32/STM32Cube/Repository/STM32Cube_FW_F4_V1.10.0/Drivers/STM32F4xx_HAL_Driver/Src/stm32f4xx_hal_flash.c ****   {
 732:/home/vadimstupakov/Data/STM32/STM32Cube/Repository/STM32Cube_FW_F4_V1.10.0/Drivers/STM32F4xx_HAL_Driver/Src/stm32f4xx_hal_flash.c ****     pFlash.ErrorCode |= HAL_FLASH_ERROR_PGP;
 1303              		.loc 1 732 0
 1304 004c 1E4B     		ldr	r3, .L92+4
 1305 004e DB69     		ldr	r3, [r3, #28]
 1306 0050 43F00403 		orr	r3, r3, #4
 1307 0054 1C4A     		ldr	r2, .L92+4
 1308 0056 D361     		str	r3, [r2, #28]
 733:/home/vadimstupakov/Data/STM32/STM32Cube/Repository/STM32Cube_FW_F4_V1.10.0/Drivers/STM32F4xx_HAL_Driver/Src/stm32f4xx_hal_flash.c ****     
 734:/home/vadimstupakov/Data/STM32/STM32Cube/Repository/STM32Cube_FW_F4_V1.10.0/Drivers/STM32F4xx_HAL_Driver/Src/stm32f4xx_hal_flash.c ****     /* Clear FLASH Programming parallelism error pending bit */
 735:/home/vadimstupakov/Data/STM32/STM32Cube/Repository/STM32Cube_FW_F4_V1.10.0/Drivers/STM32F4xx_HAL_Driver/Src/stm32f4xx_hal_flash.c ****     __HAL_FLASH_CLEAR_FLAG(FLASH_FLAG_PGPERR);
 1309              		.loc 1 735 0
 1310 0058 1A4B     		ldr	r3, .L92
 1311 005a 4022     		movs	r2, #64
 1312 005c DA60     		str	r2, [r3, #12]
 1313              	.L88:
 736:/home/vadimstupakov/Data/STM32/STM32Cube/Repository/STM32Cube_FW_F4_V1.10.0/Drivers/STM32F4xx_HAL_Driver/Src/stm32f4xx_hal_flash.c ****   }
 737:/home/vadimstupakov/Data/STM32/STM32Cube/Repository/STM32Cube_FW_F4_V1.10.0/Drivers/STM32F4xx_HAL_Driver/Src/stm32f4xx_hal_flash.c ****   
 738:/home/vadimstupakov/Data/STM32/STM32Cube/Repository/STM32Cube_FW_F4_V1.10.0/Drivers/STM32F4xx_HAL_Driver/Src/stm32f4xx_hal_flash.c ****   if(__HAL_FLASH_GET_FLAG(FLASH_FLAG_PGSERR) != RESET)
 1314              		.loc 1 738 0
 1315 005e 194B     		ldr	r3, .L92
 1316 0060 DB68     		ldr	r3, [r3, #12]
 1317 0062 03F08003 		and	r3, r3, #128
 1318 0066 002B     		cmp	r3, #0
 1319 0068 08D0     		beq	.L89
 739:/home/vadimstupakov/Data/STM32/STM32Cube/Repository/STM32Cube_FW_F4_V1.10.0/Drivers/STM32F4xx_HAL_Driver/Src/stm32f4xx_hal_flash.c ****   {
 740:/home/vadimstupakov/Data/STM32/STM32Cube/Repository/STM32Cube_FW_F4_V1.10.0/Drivers/STM32F4xx_HAL_Driver/Src/stm32f4xx_hal_flash.c ****     pFlash.ErrorCode |= HAL_FLASH_ERROR_PGS;
 1320              		.loc 1 740 0
 1321 006a 174B     		ldr	r3, .L92+4
 1322 006c DB69     		ldr	r3, [r3, #28]
 1323 006e 43F00203 		orr	r3, r3, #2
 1324 0072 154A     		ldr	r2, .L92+4
 1325 0074 D361     		str	r3, [r2, #28]
 741:/home/vadimstupakov/Data/STM32/STM32Cube/Repository/STM32Cube_FW_F4_V1.10.0/Drivers/STM32F4xx_HAL_Driver/Src/stm32f4xx_hal_flash.c ****     
 742:/home/vadimstupakov/Data/STM32/STM32Cube/Repository/STM32Cube_FW_F4_V1.10.0/Drivers/STM32F4xx_HAL_Driver/Src/stm32f4xx_hal_flash.c ****     /* Clear FLASH Programming sequence error pending bit */
 743:/home/vadimstupakov/Data/STM32/STM32Cube/Repository/STM32Cube_FW_F4_V1.10.0/Drivers/STM32F4xx_HAL_Driver/Src/stm32f4xx_hal_flash.c ****     __HAL_FLASH_CLEAR_FLAG(FLASH_FLAG_PGSERR);
 1326              		.loc 1 743 0
 1327 0076 134B     		ldr	r3, .L92
 1328 0078 8022     		movs	r2, #128
 1329 007a DA60     		str	r2, [r3, #12]
 1330              	.L89:
 744:/home/vadimstupakov/Data/STM32/STM32Cube/Repository/STM32Cube_FW_F4_V1.10.0/Drivers/STM32F4xx_HAL_Driver/Src/stm32f4xx_hal_flash.c ****   }
 745:/home/vadimstupakov/Data/STM32/STM32Cube/Repository/STM32Cube_FW_F4_V1.10.0/Drivers/STM32F4xx_HAL_Driver/Src/stm32f4xx_hal_flash.c ****   
 746:/home/vadimstupakov/Data/STM32/STM32Cube/Repository/STM32Cube_FW_F4_V1.10.0/Drivers/STM32F4xx_HAL_Driver/Src/stm32f4xx_hal_flash.c ****   if(__HAL_FLASH_GET_FLAG(FLASH_FLAG_RDERR) != RESET)
 1331              		.loc 1 746 0
 1332 007c 114B     		ldr	r3, .L92
 1333 007e DB68     		ldr	r3, [r3, #12]
 1334 0080 03F48073 		and	r3, r3, #256
 1335 0084 002B     		cmp	r3, #0
 1336 0086 09D0     		beq	.L90
ARM GAS  /tmp/ccqDtxhv.s 			page 37


 747:/home/vadimstupakov/Data/STM32/STM32Cube/Repository/STM32Cube_FW_F4_V1.10.0/Drivers/STM32F4xx_HAL_Driver/Src/stm32f4xx_hal_flash.c ****   {
 748:/home/vadimstupakov/Data/STM32/STM32Cube/Repository/STM32Cube_FW_F4_V1.10.0/Drivers/STM32F4xx_HAL_Driver/Src/stm32f4xx_hal_flash.c ****     pFlash.ErrorCode |= HAL_FLASH_ERROR_RD;
 1337              		.loc 1 748 0
 1338 0088 0F4B     		ldr	r3, .L92+4
 1339 008a DB69     		ldr	r3, [r3, #28]
 1340 008c 43F00103 		orr	r3, r3, #1
 1341 0090 0D4A     		ldr	r2, .L92+4
 1342 0092 D361     		str	r3, [r2, #28]
 749:/home/vadimstupakov/Data/STM32/STM32Cube/Repository/STM32Cube_FW_F4_V1.10.0/Drivers/STM32F4xx_HAL_Driver/Src/stm32f4xx_hal_flash.c ****     
 750:/home/vadimstupakov/Data/STM32/STM32Cube/Repository/STM32Cube_FW_F4_V1.10.0/Drivers/STM32F4xx_HAL_Driver/Src/stm32f4xx_hal_flash.c ****     /* Clear FLASH Proprietary readout protection error pending bit */
 751:/home/vadimstupakov/Data/STM32/STM32Cube/Repository/STM32Cube_FW_F4_V1.10.0/Drivers/STM32F4xx_HAL_Driver/Src/stm32f4xx_hal_flash.c ****     __HAL_FLASH_CLEAR_FLAG(FLASH_FLAG_RDERR);
 1343              		.loc 1 751 0
 1344 0094 0B4B     		ldr	r3, .L92
 1345 0096 4FF48072 		mov	r2, #256
 1346 009a DA60     		str	r2, [r3, #12]
 1347              	.L90:
 752:/home/vadimstupakov/Data/STM32/STM32Cube/Repository/STM32Cube_FW_F4_V1.10.0/Drivers/STM32F4xx_HAL_Driver/Src/stm32f4xx_hal_flash.c ****   }
 753:/home/vadimstupakov/Data/STM32/STM32Cube/Repository/STM32Cube_FW_F4_V1.10.0/Drivers/STM32F4xx_HAL_Driver/Src/stm32f4xx_hal_flash.c ****   
 754:/home/vadimstupakov/Data/STM32/STM32Cube/Repository/STM32Cube_FW_F4_V1.10.0/Drivers/STM32F4xx_HAL_Driver/Src/stm32f4xx_hal_flash.c ****   if(__HAL_FLASH_GET_FLAG(FLASH_FLAG_OPERR) != RESET)
 1348              		.loc 1 754 0
 1349 009c 094B     		ldr	r3, .L92
 1350 009e DB68     		ldr	r3, [r3, #12]
 1351 00a0 03F00203 		and	r3, r3, #2
 1352 00a4 002B     		cmp	r3, #0
 1353 00a6 08D0     		beq	.L85
 755:/home/vadimstupakov/Data/STM32/STM32Cube/Repository/STM32Cube_FW_F4_V1.10.0/Drivers/STM32F4xx_HAL_Driver/Src/stm32f4xx_hal_flash.c ****   {
 756:/home/vadimstupakov/Data/STM32/STM32Cube/Repository/STM32Cube_FW_F4_V1.10.0/Drivers/STM32F4xx_HAL_Driver/Src/stm32f4xx_hal_flash.c ****     pFlash.ErrorCode |= HAL_FLASH_ERROR_OPERATION;
 1354              		.loc 1 756 0
 1355 00a8 074B     		ldr	r3, .L92+4
 1356 00aa DB69     		ldr	r3, [r3, #28]
 1357 00ac 43F02003 		orr	r3, r3, #32
 1358 00b0 054A     		ldr	r2, .L92+4
 1359 00b2 D361     		str	r3, [r2, #28]
 757:/home/vadimstupakov/Data/STM32/STM32Cube/Repository/STM32Cube_FW_F4_V1.10.0/Drivers/STM32F4xx_HAL_Driver/Src/stm32f4xx_hal_flash.c ****     
 758:/home/vadimstupakov/Data/STM32/STM32Cube/Repository/STM32Cube_FW_F4_V1.10.0/Drivers/STM32F4xx_HAL_Driver/Src/stm32f4xx_hal_flash.c ****     /* Clear FLASH Operation error pending bit */
 759:/home/vadimstupakov/Data/STM32/STM32Cube/Repository/STM32Cube_FW_F4_V1.10.0/Drivers/STM32F4xx_HAL_Driver/Src/stm32f4xx_hal_flash.c ****     __HAL_FLASH_CLEAR_FLAG(FLASH_FLAG_OPERR);
 1360              		.loc 1 759 0
 1361 00b4 034B     		ldr	r3, .L92
 1362 00b6 0222     		movs	r2, #2
 1363 00b8 DA60     		str	r2, [r3, #12]
 1364              	.L85:
 760:/home/vadimstupakov/Data/STM32/STM32Cube/Repository/STM32Cube_FW_F4_V1.10.0/Drivers/STM32F4xx_HAL_Driver/Src/stm32f4xx_hal_flash.c ****   }
 761:/home/vadimstupakov/Data/STM32/STM32Cube/Repository/STM32Cube_FW_F4_V1.10.0/Drivers/STM32F4xx_HAL_Driver/Src/stm32f4xx_hal_flash.c **** }
 1365              		.loc 1 761 0
 1366 00ba BD46     		mov	sp, r7
 1367              	.LCFI80:
 1368              		.cfi_def_cfa_register 13
 1369              		@ sp needed
 1370 00bc 5DF8047B 		ldr	r7, [sp], #4
 1371              	.LCFI81:
 1372              		.cfi_restore 7
 1373              		.cfi_def_cfa_offset 0
 1374 00c0 7047     		bx	lr
 1375              	.L93:
 1376 00c2 00BF     		.align	2
 1377              	.L92:
 1378 00c4 003C0240 		.word	1073888256
ARM GAS  /tmp/ccqDtxhv.s 			page 38


 1379 00c8 00000000 		.word	pFlash
 1380              		.cfi_endproc
 1381              	.LFE141:
 1383              		.text
 1384              	.Letext0:
 1385              		.file 2 "/usr/include/newlib/machine/_default_types.h"
 1386              		.file 3 "/usr/include/newlib/stdint.h"
 1387              		.file 4 "/home/vadimstupakov/Data/STM32/STM32Cube/Repository/STM32Cube_FW_F4_V1.10.0/Drivers/CMSIS
 1388              		.file 5 "/home/vadimstupakov/Data/STM32/STM32Cube/Repository/STM32Cube_FW_F4_V1.10.0/Drivers/CMSIS
 1389              		.file 6 "/home/vadimstupakov/Data/STM32/STM32Cube/Repository/STM32Cube_FW_F4_V1.10.0/Drivers/STM32
 1390              		.file 7 "/home/vadimstupakov/Data/STM32/STM32Cube/Repository/STM32Cube_FW_F4_V1.10.0/Drivers/STM32
 1391              		.file 8 "/home/vadimstupakov/Data/STM32/STM32Cube/Repository/STM32Cube_FW_F4_V1.10.0/Drivers/CMSIS
ARM GAS  /tmp/ccqDtxhv.s 			page 39

