ARM GAS  /tmp/ccNp4GYi.s 			page 1


   1              		.syntax unified
   2              		.cpu cortex-m4
   3              		.eabi_attribute 27, 1
   4              		.fpu fpv4-sp-d16
   5              		.eabi_attribute 20, 1
   6              		.eabi_attribute 21, 1
   7              		.eabi_attribute 23, 3
   8              		.eabi_attribute 24, 1
   9              		.eabi_attribute 25, 1
  10              		.eabi_attribute 26, 1
  11              		.eabi_attribute 30, 6
  12              		.eabi_attribute 34, 1
  13              		.eabi_attribute 18, 4
  14              		.thumb
  15              		.file	"wwdg.c"
  16              		.text
  17              	.Ltext0:
  18              		.cfi_sections	.debug_frame
  19              		.comm	hwwdg,20,4
  20              		.section	.text.MX_WWDG_Init,"ax",%progbits
  21              		.align	2
  22              		.global	MX_WWDG_Init
  23              		.thumb
  24              		.thumb_func
  26              	MX_WWDG_Init:
  27              	.LFB125:
  28              		.file 1 "Src/wwdg.c"
   1:Src/wwdg.c    **** /**
   2:Src/wwdg.c    ****   ******************************************************************************
   3:Src/wwdg.c    ****   * File Name          : WWDG.c
   4:Src/wwdg.c    ****   * Description        : This file provides code for the configuration
   5:Src/wwdg.c    ****   *                      of the WWDG instances.
   6:Src/wwdg.c    ****   ******************************************************************************
   7:Src/wwdg.c    ****   *
   8:Src/wwdg.c    ****   * COPYRIGHT(c) 2016 STMicroelectronics
   9:Src/wwdg.c    ****   *
  10:Src/wwdg.c    ****   * Redistribution and use in source and binary forms, with or without modification,
  11:Src/wwdg.c    ****   * are permitted provided that the following conditions are met:
  12:Src/wwdg.c    ****   *   1. Redistributions of source code must retain the above copyright notice,
  13:Src/wwdg.c    ****   *      this list of conditions and the following disclaimer.
  14:Src/wwdg.c    ****   *   2. Redistributions in binary form must reproduce the above copyright notice,
  15:Src/wwdg.c    ****   *      this list of conditions and the following disclaimer in the documentation
  16:Src/wwdg.c    ****   *      and/or other materials provided with the distribution.
  17:Src/wwdg.c    ****   *   3. Neither the name of STMicroelectronics nor the names of its contributors
  18:Src/wwdg.c    ****   *      may be used to endorse or promote products derived from this software
  19:Src/wwdg.c    ****   *      without specific prior written permission.
  20:Src/wwdg.c    ****   *
  21:Src/wwdg.c    ****   * THIS SOFTWARE IS PROVIDED BY THE COPYRIGHT HOLDERS AND CONTRIBUTORS "AS IS"
  22:Src/wwdg.c    ****   * AND ANY EXPRESS OR IMPLIED WARRANTIES, INCLUDING, BUT NOT LIMITED TO, THE
  23:Src/wwdg.c    ****   * IMPLIED WARRANTIES OF MERCHANTABILITY AND FITNESS FOR A PARTICULAR PURPOSE ARE
  24:Src/wwdg.c    ****   * DISCLAIMED. IN NO EVENT SHALL THE COPYRIGHT HOLDER OR CONTRIBUTORS BE LIABLE
  25:Src/wwdg.c    ****   * FOR ANY DIRECT, INDIRECT, INCIDENTAL, SPECIAL, EXEMPLARY, OR CONSEQUENTIAL
  26:Src/wwdg.c    ****   * DAMAGES (INCLUDING, BUT NOT LIMITED TO, PROCUREMENT OF SUBSTITUTE GOODS OR
  27:Src/wwdg.c    ****   * SERVICES; LOSS OF USE, DATA, OR PROFITS; OR BUSINESS INTERRUPTION) HOWEVER
  28:Src/wwdg.c    ****   * CAUSED AND ON ANY THEORY OF LIABILITY, WHETHER IN CONTRACT, STRICT LIABILITY,
  29:Src/wwdg.c    ****   * OR TORT (INCLUDING NEGLIGENCE OR OTHERWISE) ARISING IN ANY WAY OUT OF THE USE
  30:Src/wwdg.c    ****   * OF THIS SOFTWARE, EVEN IF ADVISED OF THE POSSIBILITY OF SUCH DAMAGE.
ARM GAS  /tmp/ccNp4GYi.s 			page 2


  31:Src/wwdg.c    ****   *
  32:Src/wwdg.c    ****   ******************************************************************************
  33:Src/wwdg.c    ****   */
  34:Src/wwdg.c    **** 
  35:Src/wwdg.c    **** /* Includes ------------------------------------------------------------------*/
  36:Src/wwdg.c    **** #include "wwdg.h"
  37:Src/wwdg.c    **** 
  38:Src/wwdg.c    **** /* USER CODE BEGIN 0 */
  39:Src/wwdg.c    **** 
  40:Src/wwdg.c    **** /* USER CODE END 0 */
  41:Src/wwdg.c    **** 
  42:Src/wwdg.c    **** WWDG_HandleTypeDef hwwdg;
  43:Src/wwdg.c    **** 
  44:Src/wwdg.c    **** /* WWDG init function */
  45:Src/wwdg.c    **** void MX_WWDG_Init(void)
  46:Src/wwdg.c    **** {
  29              		.loc 1 46 0
  30              		.cfi_startproc
  31              		@ args = 0, pretend = 0, frame = 0
  32              		@ frame_needed = 1, uses_anonymous_args = 0
  33 0000 80B5     		push	{r7, lr}
  34              	.LCFI0:
  35              		.cfi_def_cfa_offset 8
  36              		.cfi_offset 7, -8
  37              		.cfi_offset 14, -4
  38 0002 00AF     		add	r7, sp, #0
  39              	.LCFI1:
  40              		.cfi_def_cfa_register 7
  47:Src/wwdg.c    **** 
  48:Src/wwdg.c    ****   hwwdg.Instance = WWDG;
  41              		.loc 1 48 0
  42 0004 074B     		ldr	r3, .L2
  43 0006 084A     		ldr	r2, .L2+4
  44 0008 1A60     		str	r2, [r3]
  49:Src/wwdg.c    ****   hwwdg.Init.Prescaler = WWDG_PRESCALER_1;
  45              		.loc 1 49 0
  46 000a 064B     		ldr	r3, .L2
  47 000c 0022     		movs	r2, #0
  48 000e 5A60     		str	r2, [r3, #4]
  50:Src/wwdg.c    ****   hwwdg.Init.Window = 64;
  49              		.loc 1 50 0
  50 0010 044B     		ldr	r3, .L2
  51 0012 4022     		movs	r2, #64
  52 0014 9A60     		str	r2, [r3, #8]
  51:Src/wwdg.c    ****   hwwdg.Init.Counter = 64;
  53              		.loc 1 51 0
  54 0016 034B     		ldr	r3, .L2
  55 0018 4022     		movs	r2, #64
  56 001a DA60     		str	r2, [r3, #12]
  52:Src/wwdg.c    ****   HAL_WWDG_Init(&hwwdg);
  57              		.loc 1 52 0
  58 001c 0148     		ldr	r0, .L2
  59 001e FFF7FEFF 		bl	HAL_WWDG_Init
  53:Src/wwdg.c    **** 
  54:Src/wwdg.c    **** }
  60              		.loc 1 54 0
  61 0022 80BD     		pop	{r7, pc}
ARM GAS  /tmp/ccNp4GYi.s 			page 3


  62              	.L3:
  63              		.align	2
  64              	.L2:
  65 0024 00000000 		.word	hwwdg
  66 0028 002C0040 		.word	1073753088
  67              		.cfi_endproc
  68              	.LFE125:
  70              		.section	.text.HAL_WWDG_MspInit,"ax",%progbits
  71              		.align	2
  72              		.global	HAL_WWDG_MspInit
  73              		.thumb
  74              		.thumb_func
  76              	HAL_WWDG_MspInit:
  77              	.LFB126:
  55:Src/wwdg.c    **** 
  56:Src/wwdg.c    **** void HAL_WWDG_MspInit(WWDG_HandleTypeDef* hwwdg)
  57:Src/wwdg.c    **** {
  78              		.loc 1 57 0
  79              		.cfi_startproc
  80              		@ args = 0, pretend = 0, frame = 16
  81              		@ frame_needed = 1, uses_anonymous_args = 0
  82              		@ link register save eliminated.
  83 0000 80B4     		push	{r7}
  84              	.LCFI2:
  85              		.cfi_def_cfa_offset 4
  86              		.cfi_offset 7, -4
  87 0002 85B0     		sub	sp, sp, #20
  88              	.LCFI3:
  89              		.cfi_def_cfa_offset 24
  90 0004 00AF     		add	r7, sp, #0
  91              	.LCFI4:
  92              		.cfi_def_cfa_register 7
  93 0006 7860     		str	r0, [r7, #4]
  58:Src/wwdg.c    **** 
  59:Src/wwdg.c    ****   if(hwwdg->Instance==WWDG)
  94              		.loc 1 59 0
  95 0008 7B68     		ldr	r3, [r7, #4]
  96 000a 1B68     		ldr	r3, [r3]
  97 000c 0A4A     		ldr	r2, .L6
  98 000e 9342     		cmp	r3, r2
  99 0010 0DD1     		bne	.L4
 100              	.LBB2:
  60:Src/wwdg.c    ****   {
  61:Src/wwdg.c    ****   /* USER CODE BEGIN WWDG_MspInit 0 */
  62:Src/wwdg.c    **** 
  63:Src/wwdg.c    ****   /* USER CODE END WWDG_MspInit 0 */
  64:Src/wwdg.c    ****     /* Peripheral clock enable */
  65:Src/wwdg.c    ****     __WWDG_CLK_ENABLE();
 101              		.loc 1 65 0
 102 0012 0023     		movs	r3, #0
 103 0014 FB60     		str	r3, [r7, #12]
 104 0016 094A     		ldr	r2, .L6+4
 105 0018 084B     		ldr	r3, .L6+4
 106 001a 1B6C     		ldr	r3, [r3, #64]
 107 001c 43F40063 		orr	r3, r3, #2048
 108 0020 1364     		str	r3, [r2, #64]
 109 0022 064B     		ldr	r3, .L6+4
ARM GAS  /tmp/ccNp4GYi.s 			page 4


 110 0024 1B6C     		ldr	r3, [r3, #64]
 111 0026 03F40063 		and	r3, r3, #2048
 112 002a FB60     		str	r3, [r7, #12]
 113 002c FB68     		ldr	r3, [r7, #12]
 114              	.L4:
 115              	.LBE2:
  66:Src/wwdg.c    ****   /* USER CODE BEGIN WWDG_MspInit 1 */
  67:Src/wwdg.c    **** 
  68:Src/wwdg.c    ****   /* USER CODE END WWDG_MspInit 1 */
  69:Src/wwdg.c    ****   }
  70:Src/wwdg.c    **** }
 116              		.loc 1 70 0
 117 002e 1437     		adds	r7, r7, #20
 118              	.LCFI5:
 119              		.cfi_def_cfa_offset 4
 120 0030 BD46     		mov	sp, r7
 121              	.LCFI6:
 122              		.cfi_def_cfa_register 13
 123              		@ sp needed
 124 0032 5DF8047B 		ldr	r7, [sp], #4
 125              	.LCFI7:
 126              		.cfi_restore 7
 127              		.cfi_def_cfa_offset 0
 128 0036 7047     		bx	lr
 129              	.L7:
 130              		.align	2
 131              	.L6:
 132 0038 002C0040 		.word	1073753088
 133 003c 00380240 		.word	1073887232
 134              		.cfi_endproc
 135              	.LFE126:
 137              		.section	.text.HAL_WWDG_MspDeInit,"ax",%progbits
 138              		.align	2
 139              		.global	HAL_WWDG_MspDeInit
 140              		.thumb
 141              		.thumb_func
 143              	HAL_WWDG_MspDeInit:
 144              	.LFB127:
  71:Src/wwdg.c    **** 
  72:Src/wwdg.c    **** void HAL_WWDG_MspDeInit(WWDG_HandleTypeDef* hwwdg)
  73:Src/wwdg.c    **** {
 145              		.loc 1 73 0
 146              		.cfi_startproc
 147              		@ args = 0, pretend = 0, frame = 8
 148              		@ frame_needed = 1, uses_anonymous_args = 0
 149              		@ link register save eliminated.
 150 0000 80B4     		push	{r7}
 151              	.LCFI8:
 152              		.cfi_def_cfa_offset 4
 153              		.cfi_offset 7, -4
 154 0002 83B0     		sub	sp, sp, #12
 155              	.LCFI9:
 156              		.cfi_def_cfa_offset 16
 157 0004 00AF     		add	r7, sp, #0
 158              	.LCFI10:
 159              		.cfi_def_cfa_register 7
 160 0006 7860     		str	r0, [r7, #4]
ARM GAS  /tmp/ccNp4GYi.s 			page 5


  74:Src/wwdg.c    **** 
  75:Src/wwdg.c    ****   if(hwwdg->Instance==WWDG)
 161              		.loc 1 75 0
 162 0008 7B68     		ldr	r3, [r7, #4]
 163 000a 1B68     		ldr	r3, [r3]
 164 000c 064A     		ldr	r2, .L10
 165 000e 9342     		cmp	r3, r2
 166 0010 05D1     		bne	.L8
  76:Src/wwdg.c    ****   {
  77:Src/wwdg.c    ****   /* USER CODE BEGIN WWDG_MspDeInit 0 */
  78:Src/wwdg.c    **** 
  79:Src/wwdg.c    ****   /* USER CODE END WWDG_MspDeInit 0 */
  80:Src/wwdg.c    ****     /* Peripheral clock disable */
  81:Src/wwdg.c    ****     __WWDG_CLK_DISABLE();
 167              		.loc 1 81 0
 168 0012 064A     		ldr	r2, .L10+4
 169 0014 054B     		ldr	r3, .L10+4
 170 0016 1B6C     		ldr	r3, [r3, #64]
 171 0018 23F40063 		bic	r3, r3, #2048
 172 001c 1364     		str	r3, [r2, #64]
 173              	.L8:
  82:Src/wwdg.c    ****   }
  83:Src/wwdg.c    ****   /* USER CODE BEGIN WWDG_MspDeInit 1 */
  84:Src/wwdg.c    **** 
  85:Src/wwdg.c    ****   /* USER CODE END WWDG_MspDeInit 1 */
  86:Src/wwdg.c    **** } 
 174              		.loc 1 86 0
 175 001e 0C37     		adds	r7, r7, #12
 176              	.LCFI11:
 177              		.cfi_def_cfa_offset 4
 178 0020 BD46     		mov	sp, r7
 179              	.LCFI12:
 180              		.cfi_def_cfa_register 13
 181              		@ sp needed
 182 0022 5DF8047B 		ldr	r7, [sp], #4
 183              	.LCFI13:
 184              		.cfi_restore 7
 185              		.cfi_def_cfa_offset 0
 186 0026 7047     		bx	lr
 187              	.L11:
 188              		.align	2
 189              	.L10:
 190 0028 002C0040 		.word	1073753088
 191 002c 00380240 		.word	1073887232
 192              		.cfi_endproc
 193              	.LFE127:
 195              		.text
 196              	.Letext0:
 197              		.file 2 "/usr/include/newlib/machine/_default_types.h"
 198              		.file 3 "/usr/include/newlib/stdint.h"
 199              		.file 4 "/home/vadimstupakov/Data/STM32/STM32Cube/Repository/STM32Cube_FW_F4_V1.10.0/Drivers/CMSIS
 200              		.file 5 "/home/vadimstupakov/Data/STM32/STM32Cube/Repository/STM32Cube_FW_F4_V1.10.0/Drivers/STM32
 201              		.file 6 "/home/vadimstupakov/Data/STM32/STM32Cube/Repository/STM32Cube_FW_F4_V1.10.0/Drivers/STM32
 202              		.file 7 "/home/vadimstupakov/Data/STM32/STM32Cube/Repository/STM32Cube_FW_F4_V1.10.0/Drivers/CMSIS
ARM GAS  /tmp/ccNp4GYi.s 			page 6

